
Discarded input sections

 .text          0x0000000000000000        0x0 build/asm/header.s.o
 .bss           0x0000000000000000        0x0 build/asm/header.s.o
 .reginfo       0x0000000000000000       0x18 build/asm/header.s.o
 .MIPS.abiflags
                0x0000000000000000       0x18 build/asm/header.s.o
 .pdr           0x0000000000000000        0x0 build/asm/header.s.o
 .gnu.attributes
                0x0000000000000000       0x10 build/asm/header.s.o
 .reginfo       0x0000000000000000       0x18 build/asm/1000.s.o
 .MIPS.abiflags
                0x0000000000000000       0x18 build/asm/1000.s.o
 .pdr           0x0000000000000000        0x0 build/asm/1000.s.o
 .gnu.attributes
                0x0000000000000000       0x10 build/asm/1000.s.o
 .reginfo       0x0000000000000000       0x18 build/asm/11C0.s.o
 .MIPS.abiflags
                0x0000000000000000       0x18 build/asm/11C0.s.o
 .pdr           0x0000000000000000        0x0 build/asm/11C0.s.o
 .gnu.attributes
                0x0000000000000000       0x10 build/asm/11C0.s.o
 .reginfo       0x0000000000000000       0x18 build/asm/1FC0.s.o
 .MIPS.abiflags
                0x0000000000000000       0x18 build/asm/1FC0.s.o
 .pdr           0x0000000000000000        0x0 build/asm/1FC0.s.o
 .gnu.attributes
                0x0000000000000000       0x10 build/asm/1FC0.s.o
 .reginfo       0x0000000000000000       0x18 build/asm/2360.s.o
 .MIPS.abiflags
                0x0000000000000000       0x18 build/asm/2360.s.o
 .pdr           0x0000000000000000        0x0 build/asm/2360.s.o
 .gnu.attributes
                0x0000000000000000       0x10 build/asm/2360.s.o
 .reginfo       0x0000000000000000       0x18 build/asm/2D80.s.o
 .MIPS.abiflags
                0x0000000000000000       0x18 build/asm/2D80.s.o
 .pdr           0x0000000000000000        0x0 build/asm/2D80.s.o
 .gnu.attributes
                0x0000000000000000       0x10 build/asm/2D80.s.o
 .reginfo       0x0000000000000000       0x18 build/asm/5850.s.o
 .MIPS.abiflags
                0x0000000000000000       0x18 build/asm/5850.s.o
 .pdr           0x0000000000000000        0x0 build/asm/5850.s.o
 .gnu.attributes
                0x0000000000000000       0x10 build/asm/5850.s.o
 .reginfo       0x0000000000000000       0x18 build/asm/6BE0.s.o
 .MIPS.abiflags
                0x0000000000000000       0x18 build/asm/6BE0.s.o
 .pdr           0x0000000000000000        0x0 build/asm/6BE0.s.o
 .gnu.attributes
                0x0000000000000000       0x10 build/asm/6BE0.s.o
 .reginfo       0x0000000000000000       0x18 build/asm/6C90.s.o
 .MIPS.abiflags
                0x0000000000000000       0x18 build/asm/6C90.s.o
 .pdr           0x0000000000000000        0x0 build/asm/6C90.s.o
 .gnu.attributes
                0x0000000000000000       0x10 build/asm/6C90.s.o
 .reginfo       0x0000000000000000       0x18 build/asm/6EA0.s.o
 .MIPS.abiflags
                0x0000000000000000       0x18 build/asm/6EA0.s.o
 .pdr           0x0000000000000000        0x0 build/asm/6EA0.s.o
 .gnu.attributes
                0x0000000000000000       0x10 build/asm/6EA0.s.o
 .reginfo       0x0000000000000000       0x18 build/asm/9D50.s.o
 .MIPS.abiflags
                0x0000000000000000       0x18 build/asm/9D50.s.o
 .pdr           0x0000000000000000        0x0 build/asm/9D50.s.o
 .gnu.attributes
                0x0000000000000000       0x10 build/asm/9D50.s.o
 .reginfo       0x0000000000000000       0x18 build/asm/A160.s.o
 .MIPS.abiflags
                0x0000000000000000       0x18 build/asm/A160.s.o
 .pdr           0x0000000000000000        0x0 build/asm/A160.s.o
 .gnu.attributes
                0x0000000000000000       0x10 build/asm/A160.s.o
 .reginfo       0x0000000000000000       0x18 build/asm/A220.s.o
 .MIPS.abiflags
                0x0000000000000000       0x18 build/asm/A220.s.o
 .pdr           0x0000000000000000        0x0 build/asm/A220.s.o
 .gnu.attributes
                0x0000000000000000       0x10 build/asm/A220.s.o
 .reginfo       0x0000000000000000       0x18 build/asm/A910.s.o
 .MIPS.abiflags
                0x0000000000000000       0x18 build/asm/A910.s.o
 .pdr           0x0000000000000000        0x0 build/asm/A910.s.o
 .gnu.attributes
                0x0000000000000000       0x10 build/asm/A910.s.o
 .reginfo       0x0000000000000000       0x18 build/asm/DA40.s.o
 .MIPS.abiflags
                0x0000000000000000       0x18 build/asm/DA40.s.o
 .pdr           0x0000000000000000        0x0 build/asm/DA40.s.o
 .gnu.attributes
                0x0000000000000000       0x10 build/asm/DA40.s.o
 .reginfo       0x0000000000000000       0x18 build/asm/E270.s.o
 .MIPS.abiflags
                0x0000000000000000       0x18 build/asm/E270.s.o
 .pdr           0x0000000000000000        0x0 build/asm/E270.s.o
 .gnu.attributes
                0x0000000000000000       0x10 build/asm/E270.s.o
 .reginfo       0x0000000000000000       0x18 build/asm/EBD0.s.o
 .MIPS.abiflags
                0x0000000000000000       0x18 build/asm/EBD0.s.o
 .pdr           0x0000000000000000        0x0 build/asm/EBD0.s.o
 .gnu.attributes
                0x0000000000000000       0x10 build/asm/EBD0.s.o
 .reginfo       0x0000000000000000       0x18 build/asm/EC90.s.o
 .MIPS.abiflags
                0x0000000000000000       0x18 build/asm/EC90.s.o
 .pdr           0x0000000000000000        0x0 build/asm/EC90.s.o
 .gnu.attributes
                0x0000000000000000       0x10 build/asm/EC90.s.o
 .reginfo       0x0000000000000000       0x18 build/asm/10520.s.o
 .MIPS.abiflags
                0x0000000000000000       0x18 build/asm/10520.s.o
 .pdr           0x0000000000000000        0x0 build/asm/10520.s.o
 .gnu.attributes
                0x0000000000000000       0x10 build/asm/10520.s.o
 .reginfo       0x0000000000000000       0x18 build/asm/10640.s.o
 .MIPS.abiflags
                0x0000000000000000       0x18 build/asm/10640.s.o
 .pdr           0x0000000000000000        0x0 build/asm/10640.s.o
 .gnu.attributes
                0x0000000000000000       0x10 build/asm/10640.s.o
 .reginfo       0x0000000000000000       0x18 build/asm/108F0.s.o
 .MIPS.abiflags
                0x0000000000000000       0x18 build/asm/108F0.s.o
 .pdr           0x0000000000000000        0x0 build/asm/108F0.s.o
 .gnu.attributes
                0x0000000000000000       0x10 build/asm/108F0.s.o
 .reginfo       0x0000000000000000       0x18 build/asm/10D60.s.o
 .MIPS.abiflags
                0x0000000000000000       0x18 build/asm/10D60.s.o
 .pdr           0x0000000000000000        0x0 build/asm/10D60.s.o
 .gnu.attributes
                0x0000000000000000       0x10 build/asm/10D60.s.o
 .reginfo       0x0000000000000000       0x18 build/asm/12760.s.o
 .MIPS.abiflags
                0x0000000000000000       0x18 build/asm/12760.s.o
 .pdr           0x0000000000000000        0x0 build/asm/12760.s.o
 .gnu.attributes
                0x0000000000000000       0x10 build/asm/12760.s.o
 .reginfo       0x0000000000000000       0x18 build/asm/14060.s.o
 .MIPS.abiflags
                0x0000000000000000       0x18 build/asm/14060.s.o
 .pdr           0x0000000000000000        0x0 build/asm/14060.s.o
 .gnu.attributes
                0x0000000000000000       0x10 build/asm/14060.s.o
 .reginfo       0x0000000000000000       0x18 build/asm/14720.s.o
 .MIPS.abiflags
                0x0000000000000000       0x18 build/asm/14720.s.o
 .pdr           0x0000000000000000        0x0 build/asm/14720.s.o
 .gnu.attributes
                0x0000000000000000       0x10 build/asm/14720.s.o
 .reginfo       0x0000000000000000       0x18 build/asm/15020.s.o
 .MIPS.abiflags
                0x0000000000000000       0x18 build/asm/15020.s.o
 .pdr           0x0000000000000000        0x0 build/asm/15020.s.o
 .gnu.attributes
                0x0000000000000000       0x10 build/asm/15020.s.o
 .reginfo       0x0000000000000000       0x18 build/asm/15D60.s.o
 .MIPS.abiflags
                0x0000000000000000       0x18 build/asm/15D60.s.o
 .pdr           0x0000000000000000        0x0 build/asm/15D60.s.o
 .gnu.attributes
                0x0000000000000000       0x10 build/asm/15D60.s.o
 .reginfo       0x0000000000000000       0x18 build/asm/16840.s.o
 .MIPS.abiflags
                0x0000000000000000       0x18 build/asm/16840.s.o
 .pdr           0x0000000000000000        0x0 build/asm/16840.s.o
 .gnu.attributes
                0x0000000000000000       0x10 build/asm/16840.s.o
 .reginfo       0x0000000000000000       0x18 build/asm/16BD0.s.o
 .MIPS.abiflags
                0x0000000000000000       0x18 build/asm/16BD0.s.o
 .pdr           0x0000000000000000        0x0 build/asm/16BD0.s.o
 .gnu.attributes
                0x0000000000000000       0x10 build/asm/16BD0.s.o
 .reginfo       0x0000000000000000       0x18 build/asm/198F0.s.o
 .MIPS.abiflags
                0x0000000000000000       0x18 build/asm/198F0.s.o
 .pdr           0x0000000000000000        0x0 build/asm/198F0.s.o
 .gnu.attributes
                0x0000000000000000       0x10 build/asm/198F0.s.o
 .reginfo       0x0000000000000000       0x18 build/asm/19A90.s.o
 .MIPS.abiflags
                0x0000000000000000       0x18 build/asm/19A90.s.o
 .pdr           0x0000000000000000        0x0 build/asm/19A90.s.o
 .gnu.attributes
                0x0000000000000000       0x10 build/asm/19A90.s.o
 .reginfo       0x0000000000000000       0x18 build/asm/19AA0.s.o
 .MIPS.abiflags
                0x0000000000000000       0x18 build/asm/19AA0.s.o
 .pdr           0x0000000000000000        0x0 build/asm/19AA0.s.o
 .gnu.attributes
                0x0000000000000000       0x10 build/asm/19AA0.s.o
 .options       0x0000000000000000       0x20 build/src/code_1A230.c.o
 .reginfo       0x0000000000000000       0x18 build/src/code_1A230.c.o
 .mdebug        0x0000000000000000     0x18dc build/src/code_1A230.c.o
 .reginfo       0x0000000000000000       0x18 build/asm/1CA50.s.o
 .MIPS.abiflags
                0x0000000000000000       0x18 build/asm/1CA50.s.o
 .pdr           0x0000000000000000        0x0 build/asm/1CA50.s.o
 .gnu.attributes
                0x0000000000000000       0x10 build/asm/1CA50.s.o
 .reginfo       0x0000000000000000       0x18 build/asm/1CC30.s.o
 .MIPS.abiflags
                0x0000000000000000       0x18 build/asm/1CC30.s.o
 .pdr           0x0000000000000000        0x0 build/asm/1CC30.s.o
 .gnu.attributes
                0x0000000000000000       0x10 build/asm/1CC30.s.o
 .reginfo       0x0000000000000000       0x18 build/asm/1EDC0.s.o
 .MIPS.abiflags
                0x0000000000000000       0x18 build/asm/1EDC0.s.o
 .pdr           0x0000000000000000        0x0 build/asm/1EDC0.s.o
 .gnu.attributes
                0x0000000000000000       0x10 build/asm/1EDC0.s.o
 .reginfo       0x0000000000000000       0x18 build/asm/1F0E0.s.o
 .MIPS.abiflags
                0x0000000000000000       0x18 build/asm/1F0E0.s.o
 .pdr           0x0000000000000000        0x0 build/asm/1F0E0.s.o
 .gnu.attributes
                0x0000000000000000       0x10 build/asm/1F0E0.s.o
 .reginfo       0x0000000000000000       0x18 build/asm/1FD50.s.o
 .MIPS.abiflags
                0x0000000000000000       0x18 build/asm/1FD50.s.o
 .pdr           0x0000000000000000        0x0 build/asm/1FD50.s.o
 .gnu.attributes
                0x0000000000000000       0x10 build/asm/1FD50.s.o
 .reginfo       0x0000000000000000       0x18 build/asm/202A0.s.o
 .MIPS.abiflags
                0x0000000000000000       0x18 build/asm/202A0.s.o
 .pdr           0x0000000000000000        0x0 build/asm/202A0.s.o
 .gnu.attributes
                0x0000000000000000       0x10 build/asm/202A0.s.o
 .reginfo       0x0000000000000000       0x18 build/asm/20D90.s.o
 .MIPS.abiflags
                0x0000000000000000       0x18 build/asm/20D90.s.o
 .pdr           0x0000000000000000        0x0 build/asm/20D90.s.o
 .gnu.attributes
                0x0000000000000000       0x10 build/asm/20D90.s.o
 .reginfo       0x0000000000000000       0x18 build/asm/22680.s.o
 .MIPS.abiflags
                0x0000000000000000       0x18 build/asm/22680.s.o
 .pdr           0x0000000000000000        0x0 build/asm/22680.s.o
 .gnu.attributes
                0x0000000000000000       0x10 build/asm/22680.s.o
 .reginfo       0x0000000000000000       0x18 build/asm/22EC0.s.o
 .MIPS.abiflags
                0x0000000000000000       0x18 build/asm/22EC0.s.o
 .pdr           0x0000000000000000        0x0 build/asm/22EC0.s.o
 .gnu.attributes
                0x0000000000000000       0x10 build/asm/22EC0.s.o
 .reginfo       0x0000000000000000       0x18 build/asm/24530.s.o
 .MIPS.abiflags
                0x0000000000000000       0x18 build/asm/24530.s.o
 .pdr           0x0000000000000000        0x0 build/asm/24530.s.o
 .gnu.attributes
                0x0000000000000000       0x10 build/asm/24530.s.o
 .reginfo       0x0000000000000000       0x18 build/asm/24890.s.o
 .MIPS.abiflags
                0x0000000000000000       0x18 build/asm/24890.s.o
 .pdr           0x0000000000000000        0x0 build/asm/24890.s.o
 .gnu.attributes
                0x0000000000000000       0x10 build/asm/24890.s.o
 .reginfo       0x0000000000000000       0x18 build/asm/24B70.s.o
 .MIPS.abiflags
                0x0000000000000000       0x18 build/asm/24B70.s.o
 .pdr           0x0000000000000000        0x0 build/asm/24B70.s.o
 .gnu.attributes
                0x0000000000000000       0x10 build/asm/24B70.s.o
 .reginfo       0x0000000000000000       0x18 build/asm/24CC0.s.o
 .MIPS.abiflags
                0x0000000000000000       0x18 build/asm/24CC0.s.o
 .pdr           0x0000000000000000        0x0 build/asm/24CC0.s.o
 .gnu.attributes
                0x0000000000000000       0x10 build/asm/24CC0.s.o
 .reginfo       0x0000000000000000       0x18 build/asm/24D00.s.o
 .MIPS.abiflags
                0x0000000000000000       0x18 build/asm/24D00.s.o
 .pdr           0x0000000000000000        0x0 build/asm/24D00.s.o
 .gnu.attributes
                0x0000000000000000       0x10 build/asm/24D00.s.o
 .reginfo       0x0000000000000000       0x18 build/asm/24DF0.s.o
 .MIPS.abiflags
                0x0000000000000000       0x18 build/asm/24DF0.s.o
 .pdr           0x0000000000000000        0x0 build/asm/24DF0.s.o
 .gnu.attributes
                0x0000000000000000       0x10 build/asm/24DF0.s.o
 .reginfo       0x0000000000000000       0x18 build/asm/24E40.s.o
 .MIPS.abiflags
                0x0000000000000000       0x18 build/asm/24E40.s.o
 .pdr           0x0000000000000000        0x0 build/asm/24E40.s.o
 .gnu.attributes
                0x0000000000000000       0x10 build/asm/24E40.s.o
 .reginfo       0x0000000000000000       0x18 build/asm/24EE0.s.o
 .MIPS.abiflags
                0x0000000000000000       0x18 build/asm/24EE0.s.o
 .pdr           0x0000000000000000        0x0 build/asm/24EE0.s.o
 .gnu.attributes
                0x0000000000000000       0x10 build/asm/24EE0.s.o
 .reginfo       0x0000000000000000       0x18 build/asm/25440.s.o
 .MIPS.abiflags
                0x0000000000000000       0x18 build/asm/25440.s.o
 .pdr           0x0000000000000000        0x0 build/asm/25440.s.o
 .gnu.attributes
                0x0000000000000000       0x10 build/asm/25440.s.o
 .reginfo       0x0000000000000000       0x18 build/asm/255D0.s.o
 .MIPS.abiflags
                0x0000000000000000       0x18 build/asm/255D0.s.o
 .pdr           0x0000000000000000        0x0 build/asm/255D0.s.o
 .gnu.attributes
                0x0000000000000000       0x10 build/asm/255D0.s.o
 .reginfo       0x0000000000000000       0x18 build/asm/25760.s.o
 .MIPS.abiflags
                0x0000000000000000       0x18 build/asm/25760.s.o
 .pdr           0x0000000000000000        0x0 build/asm/25760.s.o
 .gnu.attributes
                0x0000000000000000       0x10 build/asm/25760.s.o
 .reginfo       0x0000000000000000       0x18 build/asm/25A60.s.o
 .MIPS.abiflags
                0x0000000000000000       0x18 build/asm/25A60.s.o
 .pdr           0x0000000000000000        0x0 build/asm/25A60.s.o
 .gnu.attributes
                0x0000000000000000       0x10 build/asm/25A60.s.o
 .reginfo       0x0000000000000000       0x18 build/asm/25BE0.s.o
 .MIPS.abiflags
                0x0000000000000000       0x18 build/asm/25BE0.s.o
 .pdr           0x0000000000000000        0x0 build/asm/25BE0.s.o
 .gnu.attributes
                0x0000000000000000       0x10 build/asm/25BE0.s.o
 .reginfo       0x0000000000000000       0x18 build/asm/25D70.s.o
 .MIPS.abiflags
                0x0000000000000000       0x18 build/asm/25D70.s.o
 .pdr           0x0000000000000000        0x0 build/asm/25D70.s.o
 .gnu.attributes
                0x0000000000000000       0x10 build/asm/25D70.s.o
 .reginfo       0x0000000000000000       0x18 build/asm/25F20.s.o
 .MIPS.abiflags
                0x0000000000000000       0x18 build/asm/25F20.s.o
 .pdr           0x0000000000000000        0x0 build/asm/25F20.s.o
 .gnu.attributes
                0x0000000000000000       0x10 build/asm/25F20.s.o
 .reginfo       0x0000000000000000       0x18 build/asm/25FC0.s.o
 .MIPS.abiflags
                0x0000000000000000       0x18 build/asm/25FC0.s.o
 .pdr           0x0000000000000000        0x0 build/asm/25FC0.s.o
 .gnu.attributes
                0x0000000000000000       0x10 build/asm/25FC0.s.o
 .reginfo       0x0000000000000000       0x18 build/asm/26440.s.o
 .MIPS.abiflags
                0x0000000000000000       0x18 build/asm/26440.s.o
 .pdr           0x0000000000000000        0x0 build/asm/26440.s.o
 .gnu.attributes
                0x0000000000000000       0x10 build/asm/26440.s.o
 .reginfo       0x0000000000000000       0x18 build/asm/26520.s.o
 .MIPS.abiflags
                0x0000000000000000       0x18 build/asm/26520.s.o
 .pdr           0x0000000000000000        0x0 build/asm/26520.s.o
 .gnu.attributes
                0x0000000000000000       0x10 build/asm/26520.s.o
 .reginfo       0x0000000000000000       0x18 build/asm/265C0.s.o
 .MIPS.abiflags
                0x0000000000000000       0x18 build/asm/265C0.s.o
 .pdr           0x0000000000000000        0x0 build/asm/265C0.s.o
 .gnu.attributes
                0x0000000000000000       0x10 build/asm/265C0.s.o
 .reginfo       0x0000000000000000       0x18 build/asm/26610.s.o
 .MIPS.abiflags
                0x0000000000000000       0x18 build/asm/26610.s.o
 .pdr           0x0000000000000000        0x0 build/asm/26610.s.o
 .gnu.attributes
                0x0000000000000000       0x10 build/asm/26610.s.o
 .reginfo       0x0000000000000000       0x18 build/asm/28470.s.o
 .MIPS.abiflags
                0x0000000000000000       0x18 build/asm/28470.s.o
 .pdr           0x0000000000000000        0x0 build/asm/28470.s.o
 .gnu.attributes
                0x0000000000000000       0x10 build/asm/28470.s.o
 .reginfo       0x0000000000000000       0x18 build/asm/2E0B0.s.o
 .MIPS.abiflags
                0x0000000000000000       0x18 build/asm/2E0B0.s.o
 .pdr           0x0000000000000000        0x0 build/asm/2E0B0.s.o
 .gnu.attributes
                0x0000000000000000       0x10 build/asm/2E0B0.s.o
 .reginfo       0x0000000000000000       0x18 build/asm/2F1E0.s.o
 .MIPS.abiflags
                0x0000000000000000       0x18 build/asm/2F1E0.s.o
 .pdr           0x0000000000000000        0x0 build/asm/2F1E0.s.o
 .gnu.attributes
                0x0000000000000000       0x10 build/asm/2F1E0.s.o
 .reginfo       0x0000000000000000       0x18 build/asm/337B0.s.o
 .MIPS.abiflags
                0x0000000000000000       0x18 build/asm/337B0.s.o
 .pdr           0x0000000000000000        0x0 build/asm/337B0.s.o
 .gnu.attributes
                0x0000000000000000       0x10 build/asm/337B0.s.o
 .reginfo       0x0000000000000000       0x18 build/asm/37B40.s.o
 .MIPS.abiflags
                0x0000000000000000       0x18 build/asm/37B40.s.o
 .pdr           0x0000000000000000        0x0 build/asm/37B40.s.o
 .gnu.attributes
                0x0000000000000000       0x10 build/asm/37B40.s.o
 .reginfo       0x0000000000000000       0x18 build/asm/3AD90.s.o
 .MIPS.abiflags
                0x0000000000000000       0x18 build/asm/3AD90.s.o
 .pdr           0x0000000000000000        0x0 build/asm/3AD90.s.o
 .gnu.attributes
                0x0000000000000000       0x10 build/asm/3AD90.s.o
 .reginfo       0x0000000000000000       0x18 build/asm/3C840.s.o
 .MIPS.abiflags
                0x0000000000000000       0x18 build/asm/3C840.s.o
 .pdr           0x0000000000000000        0x0 build/asm/3C840.s.o
 .gnu.attributes
                0x0000000000000000       0x10 build/asm/3C840.s.o
 .reginfo       0x0000000000000000       0x18 build/asm/3F900.s.o
 .MIPS.abiflags
                0x0000000000000000       0x18 build/asm/3F900.s.o
 .pdr           0x0000000000000000        0x0 build/asm/3F900.s.o
 .gnu.attributes
                0x0000000000000000       0x10 build/asm/3F900.s.o
 .reginfo       0x0000000000000000       0x18 build/asm/43090.s.o
 .MIPS.abiflags
                0x0000000000000000       0x18 build/asm/43090.s.o
 .pdr           0x0000000000000000        0x0 build/asm/43090.s.o
 .gnu.attributes
                0x0000000000000000       0x10 build/asm/43090.s.o
 .reginfo       0x0000000000000000       0x18 build/asm/470E0.s.o
 .MIPS.abiflags
                0x0000000000000000       0x18 build/asm/470E0.s.o
 .pdr           0x0000000000000000        0x0 build/asm/470E0.s.o
 .gnu.attributes
                0x0000000000000000       0x10 build/asm/470E0.s.o
 .reginfo       0x0000000000000000       0x18 build/asm/4B490.s.o
 .MIPS.abiflags
                0x0000000000000000       0x18 build/asm/4B490.s.o
 .pdr           0x0000000000000000        0x0 build/asm/4B490.s.o
 .gnu.attributes
                0x0000000000000000       0x10 build/asm/4B490.s.o
 .reginfo       0x0000000000000000       0x18 build/asm/4FA50.s.o
 .MIPS.abiflags
                0x0000000000000000       0x18 build/asm/4FA50.s.o
 .pdr           0x0000000000000000        0x0 build/asm/4FA50.s.o
 .gnu.attributes
                0x0000000000000000       0x10 build/asm/4FA50.s.o
 .reginfo       0x0000000000000000       0x18 build/asm/53A60.s.o
 .MIPS.abiflags
                0x0000000000000000       0x18 build/asm/53A60.s.o
 .pdr           0x0000000000000000        0x0 build/asm/53A60.s.o
 .gnu.attributes
                0x0000000000000000       0x10 build/asm/53A60.s.o
 .reginfo       0x0000000000000000       0x18 build/asm/57E00.s.o
 .MIPS.abiflags
                0x0000000000000000       0x18 build/asm/57E00.s.o
 .pdr           0x0000000000000000        0x0 build/asm/57E00.s.o
 .gnu.attributes
                0x0000000000000000       0x10 build/asm/57E00.s.o
 .reginfo       0x0000000000000000       0x18 build/asm/58530.s.o
 .MIPS.abiflags
                0x0000000000000000       0x18 build/asm/58530.s.o
 .pdr           0x0000000000000000        0x0 build/asm/58530.s.o
 .gnu.attributes
                0x0000000000000000       0x10 build/asm/58530.s.o
 .reginfo       0x0000000000000000       0x18 build/asm/58710.s.o
 .MIPS.abiflags
                0x0000000000000000       0x18 build/asm/58710.s.o
 .pdr           0x0000000000000000        0x0 build/asm/58710.s.o
 .gnu.attributes
                0x0000000000000000       0x10 build/asm/58710.s.o
 .reginfo       0x0000000000000000       0x18 build/asm/5D0C0.s.o
 .MIPS.abiflags
                0x0000000000000000       0x18 build/asm/5D0C0.s.o
 .pdr           0x0000000000000000        0x0 build/asm/5D0C0.s.o
 .gnu.attributes
                0x0000000000000000       0x10 build/asm/5D0C0.s.o
 .reginfo       0x0000000000000000       0x18 build/asm/5D350.s.o
 .MIPS.abiflags
                0x0000000000000000       0x18 build/asm/5D350.s.o
 .pdr           0x0000000000000000        0x0 build/asm/5D350.s.o
 .gnu.attributes
                0x0000000000000000       0x10 build/asm/5D350.s.o
 .reginfo       0x0000000000000000       0x18 build/asm/5F6B0.s.o
 .MIPS.abiflags
                0x0000000000000000       0x18 build/asm/5F6B0.s.o
 .pdr           0x0000000000000000        0x0 build/asm/5F6B0.s.o
 .gnu.attributes
                0x0000000000000000       0x10 build/asm/5F6B0.s.o
 .reginfo       0x0000000000000000       0x18 build/asm/61570.s.o
 .MIPS.abiflags
                0x0000000000000000       0x18 build/asm/61570.s.o
 .pdr           0x0000000000000000        0x0 build/asm/61570.s.o
 .gnu.attributes
                0x0000000000000000       0x10 build/asm/61570.s.o
 .reginfo       0x0000000000000000       0x18 build/asm/62900.s.o
 .MIPS.abiflags
                0x0000000000000000       0x18 build/asm/62900.s.o
 .pdr           0x0000000000000000        0x0 build/asm/62900.s.o
 .gnu.attributes
                0x0000000000000000       0x10 build/asm/62900.s.o
 .reginfo       0x0000000000000000       0x18 build/asm/63A60.s.o
 .MIPS.abiflags
                0x0000000000000000       0x18 build/asm/63A60.s.o
 .pdr           0x0000000000000000        0x0 build/asm/63A60.s.o
 .gnu.attributes
                0x0000000000000000       0x10 build/asm/63A60.s.o
 .reginfo       0x0000000000000000       0x18 build/asm/65610.s.o
 .MIPS.abiflags
                0x0000000000000000       0x18 build/asm/65610.s.o
 .pdr           0x0000000000000000        0x0 build/asm/65610.s.o
 .gnu.attributes
                0x0000000000000000       0x10 build/asm/65610.s.o
 .reginfo       0x0000000000000000       0x18 build/asm/65FF0.s.o
 .MIPS.abiflags
                0x0000000000000000       0x18 build/asm/65FF0.s.o
 .pdr           0x0000000000000000        0x0 build/asm/65FF0.s.o
 .gnu.attributes
                0x0000000000000000       0x10 build/asm/65FF0.s.o
 .reginfo       0x0000000000000000       0x18 build/asm/66230.s.o
 .MIPS.abiflags
                0x0000000000000000       0x18 build/asm/66230.s.o
 .pdr           0x0000000000000000        0x0 build/asm/66230.s.o
 .gnu.attributes
                0x0000000000000000       0x10 build/asm/66230.s.o
 .reginfo       0x0000000000000000       0x18 build/asm/66340.s.o
 .MIPS.abiflags
                0x0000000000000000       0x18 build/asm/66340.s.o
 .pdr           0x0000000000000000        0x0 build/asm/66340.s.o
 .gnu.attributes
                0x0000000000000000       0x10 build/asm/66340.s.o
 .reginfo       0x0000000000000000       0x18 build/asm/66740.s.o
 .MIPS.abiflags
                0x0000000000000000       0x18 build/asm/66740.s.o
 .pdr           0x0000000000000000        0x0 build/asm/66740.s.o
 .gnu.attributes
                0x0000000000000000       0x10 build/asm/66740.s.o
 .reginfo       0x0000000000000000       0x18 build/asm/667A0.s.o
 .MIPS.abiflags
                0x0000000000000000       0x18 build/asm/667A0.s.o
 .pdr           0x0000000000000000        0x0 build/asm/667A0.s.o
 .gnu.attributes
                0x0000000000000000       0x10 build/asm/667A0.s.o
 .reginfo       0x0000000000000000       0x18 build/asm/669F0.s.o
 .MIPS.abiflags
                0x0000000000000000       0x18 build/asm/669F0.s.o
 .pdr           0x0000000000000000        0x0 build/asm/669F0.s.o
 .gnu.attributes
                0x0000000000000000       0x10 build/asm/669F0.s.o
 .reginfo       0x0000000000000000       0x18 build/asm/66A30.s.o
 .MIPS.abiflags
                0x0000000000000000       0x18 build/asm/66A30.s.o
 .pdr           0x0000000000000000        0x0 build/asm/66A30.s.o
 .gnu.attributes
                0x0000000000000000       0x10 build/asm/66A30.s.o
 .reginfo       0x0000000000000000       0x18 build/asm/66A60.s.o
 .MIPS.abiflags
                0x0000000000000000       0x18 build/asm/66A60.s.o
 .pdr           0x0000000000000000        0x0 build/asm/66A60.s.o
 .gnu.attributes
                0x0000000000000000       0x10 build/asm/66A60.s.o
 .reginfo       0x0000000000000000       0x18 build/asm/66B10.s.o
 .MIPS.abiflags
                0x0000000000000000       0x18 build/asm/66B10.s.o
 .pdr           0x0000000000000000        0x0 build/asm/66B10.s.o
 .gnu.attributes
                0x0000000000000000       0x10 build/asm/66B10.s.o
 .reginfo       0x0000000000000000       0x18 build/asm/66C20.s.o
 .MIPS.abiflags
                0x0000000000000000       0x18 build/asm/66C20.s.o
 .pdr           0x0000000000000000        0x0 build/asm/66C20.s.o
 .gnu.attributes
                0x0000000000000000       0x10 build/asm/66C20.s.o
 .reginfo       0x0000000000000000       0x18 build/asm/66C60.s.o
 .MIPS.abiflags
                0x0000000000000000       0x18 build/asm/66C60.s.o
 .pdr           0x0000000000000000        0x0 build/asm/66C60.s.o
 .gnu.attributes
                0x0000000000000000       0x10 build/asm/66C60.s.o
 .reginfo       0x0000000000000000       0x18 build/asm/66DD0.s.o
 .MIPS.abiflags
                0x0000000000000000       0x18 build/asm/66DD0.s.o
 .pdr           0x0000000000000000        0x0 build/asm/66DD0.s.o
 .gnu.attributes
                0x0000000000000000       0x10 build/asm/66DD0.s.o
 .reginfo       0x0000000000000000       0x18 build/asm/67890.s.o
 .MIPS.abiflags
                0x0000000000000000       0x18 build/asm/67890.s.o
 .pdr           0x0000000000000000        0x0 build/asm/67890.s.o
 .gnu.attributes
                0x0000000000000000       0x10 build/asm/67890.s.o
 .reginfo       0x0000000000000000       0x18 build/asm/678D0.s.o
 .MIPS.abiflags
                0x0000000000000000       0x18 build/asm/678D0.s.o
 .pdr           0x0000000000000000        0x0 build/asm/678D0.s.o
 .gnu.attributes
                0x0000000000000000       0x10 build/asm/678D0.s.o
 .reginfo       0x0000000000000000       0x18 build/asm/68220.s.o
 .MIPS.abiflags
                0x0000000000000000       0x18 build/asm/68220.s.o
 .pdr           0x0000000000000000        0x0 build/asm/68220.s.o
 .gnu.attributes
                0x0000000000000000       0x10 build/asm/68220.s.o
 .reginfo       0x0000000000000000       0x18 build/asm/682C0.s.o
 .MIPS.abiflags
                0x0000000000000000       0x18 build/asm/682C0.s.o
 .pdr           0x0000000000000000        0x0 build/asm/682C0.s.o
 .gnu.attributes
                0x0000000000000000       0x10 build/asm/682C0.s.o
 .reginfo       0x0000000000000000       0x18 build/asm/682E0.s.o
 .MIPS.abiflags
                0x0000000000000000       0x18 build/asm/682E0.s.o
 .pdr           0x0000000000000000        0x0 build/asm/682E0.s.o
 .gnu.attributes
                0x0000000000000000       0x10 build/asm/682E0.s.o
 .reginfo       0x0000000000000000       0x18 build/asm/68340.s.o
 .MIPS.abiflags
                0x0000000000000000       0x18 build/asm/68340.s.o
 .pdr           0x0000000000000000        0x0 build/asm/68340.s.o
 .gnu.attributes
                0x0000000000000000       0x10 build/asm/68340.s.o
 .reginfo       0x0000000000000000       0x18 build/asm/683A0.s.o
 .MIPS.abiflags
                0x0000000000000000       0x18 build/asm/683A0.s.o
 .pdr           0x0000000000000000        0x0 build/asm/683A0.s.o
 .gnu.attributes
                0x0000000000000000       0x10 build/asm/683A0.s.o
 .reginfo       0x0000000000000000       0x18 build/asm/68400.s.o
 .MIPS.abiflags
                0x0000000000000000       0x18 build/asm/68400.s.o
 .pdr           0x0000000000000000        0x0 build/asm/68400.s.o
 .gnu.attributes
                0x0000000000000000       0x10 build/asm/68400.s.o
 .reginfo       0x0000000000000000       0x18 build/asm/68460.s.o
 .MIPS.abiflags
                0x0000000000000000       0x18 build/asm/68460.s.o
 .pdr           0x0000000000000000        0x0 build/asm/68460.s.o
 .gnu.attributes
                0x0000000000000000       0x10 build/asm/68460.s.o
 .reginfo       0x0000000000000000       0x18 build/asm/684B0.s.o
 .MIPS.abiflags
                0x0000000000000000       0x18 build/asm/684B0.s.o
 .pdr           0x0000000000000000        0x0 build/asm/684B0.s.o
 .gnu.attributes
                0x0000000000000000       0x10 build/asm/684B0.s.o
 .options       0x0000000000000000       0x20 build/src/code_68590.c.o
 .reginfo       0x0000000000000000       0x18 build/src/code_68590.c.o
 .mdebug        0x0000000000000000      0x5b8 build/src/code_68590.c.o
 .reginfo       0x0000000000000000       0x18 build/asm/68900.s.o
 .MIPS.abiflags
                0x0000000000000000       0x18 build/asm/68900.s.o
 .pdr           0x0000000000000000        0x0 build/asm/68900.s.o
 .gnu.attributes
                0x0000000000000000       0x10 build/asm/68900.s.o
 .reginfo       0x0000000000000000       0x18 build/asm/68A80.s.o
 .MIPS.abiflags
                0x0000000000000000       0x18 build/asm/68A80.s.o
 .pdr           0x0000000000000000        0x0 build/asm/68A80.s.o
 .gnu.attributes
                0x0000000000000000       0x10 build/asm/68A80.s.o
 .reginfo       0x0000000000000000       0x18 build/asm/68AB0.s.o
 .MIPS.abiflags
                0x0000000000000000       0x18 build/asm/68AB0.s.o
 .pdr           0x0000000000000000        0x0 build/asm/68AB0.s.o
 .gnu.attributes
                0x0000000000000000       0x10 build/asm/68AB0.s.o
 .reginfo       0x0000000000000000       0x18 build/asm/68B30.s.o
 .MIPS.abiflags
                0x0000000000000000       0x18 build/asm/68B30.s.o
 .pdr           0x0000000000000000        0x0 build/asm/68B30.s.o
 .gnu.attributes
                0x0000000000000000       0x10 build/asm/68B30.s.o
 .reginfo       0x0000000000000000       0x18 build/asm/68BE0.s.o
 .MIPS.abiflags
                0x0000000000000000       0x18 build/asm/68BE0.s.o
 .pdr           0x0000000000000000        0x0 build/asm/68BE0.s.o
 .gnu.attributes
                0x0000000000000000       0x10 build/asm/68BE0.s.o
 .reginfo       0x0000000000000000       0x18 build/asm/68BF0.s.o
 .MIPS.abiflags
                0x0000000000000000       0x18 build/asm/68BF0.s.o
 .pdr           0x0000000000000000        0x0 build/asm/68BF0.s.o
 .gnu.attributes
                0x0000000000000000       0x10 build/asm/68BF0.s.o
 .reginfo       0x0000000000000000       0x18 build/asm/69420.s.o
 .MIPS.abiflags
                0x0000000000000000       0x18 build/asm/69420.s.o
 .pdr           0x0000000000000000        0x0 build/asm/69420.s.o
 .gnu.attributes
                0x0000000000000000       0x10 build/asm/69420.s.o
 .reginfo       0x0000000000000000       0x18 build/asm/6AD60.s.o
 .MIPS.abiflags
                0x0000000000000000       0x18 build/asm/6AD60.s.o
 .pdr           0x0000000000000000        0x0 build/asm/6AD60.s.o
 .gnu.attributes
                0x0000000000000000       0x10 build/asm/6AD60.s.o
 .reginfo       0x0000000000000000       0x18 build/asm/6B170.s.o
 .MIPS.abiflags
                0x0000000000000000       0x18 build/asm/6B170.s.o
 .pdr           0x0000000000000000        0x0 build/asm/6B170.s.o
 .gnu.attributes
                0x0000000000000000       0x10 build/asm/6B170.s.o
 .reginfo       0x0000000000000000       0x18 build/asm/6B2C0.s.o
 .MIPS.abiflags
                0x0000000000000000       0x18 build/asm/6B2C0.s.o
 .pdr           0x0000000000000000        0x0 build/asm/6B2C0.s.o
 .gnu.attributes
                0x0000000000000000       0x10 build/asm/6B2C0.s.o
 .reginfo       0x0000000000000000       0x18 build/asm/6B350.s.o
 .MIPS.abiflags
                0x0000000000000000       0x18 build/asm/6B350.s.o
 .pdr           0x0000000000000000        0x0 build/asm/6B350.s.o
 .gnu.attributes
                0x0000000000000000       0x10 build/asm/6B350.s.o
 .reginfo       0x0000000000000000       0x18 build/asm/6B580.s.o
 .MIPS.abiflags
                0x0000000000000000       0x18 build/asm/6B580.s.o
 .pdr           0x0000000000000000        0x0 build/asm/6B580.s.o
 .gnu.attributes
                0x0000000000000000       0x10 build/asm/6B580.s.o
 .reginfo       0x0000000000000000       0x18 build/asm/6B670.s.o
 .MIPS.abiflags
                0x0000000000000000       0x18 build/asm/6B670.s.o
 .pdr           0x0000000000000000        0x0 build/asm/6B670.s.o
 .gnu.attributes
                0x0000000000000000       0x10 build/asm/6B670.s.o
 .reginfo       0x0000000000000000       0x18 build/asm/6B710.s.o
 .MIPS.abiflags
                0x0000000000000000       0x18 build/asm/6B710.s.o
 .pdr           0x0000000000000000        0x0 build/asm/6B710.s.o
 .gnu.attributes
                0x0000000000000000       0x10 build/asm/6B710.s.o
 .reginfo       0x0000000000000000       0x18 build/asm/6B850.s.o
 .MIPS.abiflags
                0x0000000000000000       0x18 build/asm/6B850.s.o
 .pdr           0x0000000000000000        0x0 build/asm/6B850.s.o
 .gnu.attributes
                0x0000000000000000       0x10 build/asm/6B850.s.o
 .reginfo       0x0000000000000000       0x18 build/asm/6B9F0.s.o
 .MIPS.abiflags
                0x0000000000000000       0x18 build/asm/6B9F0.s.o
 .pdr           0x0000000000000000        0x0 build/asm/6B9F0.s.o
 .gnu.attributes
                0x0000000000000000       0x10 build/asm/6B9F0.s.o

Memory Configuration

Name             Origin             Length             Attributes
*default*        0x0000000000000000 0xffffffffffffffff

Linker script and memory map

LOAD build/asm/header.s.o
LOAD build/assets/boot.bin.o
LOAD build/asm/1000.s.o
LOAD build/asm/11C0.s.o
LOAD build/asm/1FC0.s.o
LOAD build/asm/2360.s.o
LOAD build/asm/2D80.s.o
LOAD build/asm/5850.s.o
LOAD build/asm/6BE0.s.o
LOAD build/asm/6C90.s.o
LOAD build/asm/6EA0.s.o
LOAD build/asm/9D50.s.o
LOAD build/asm/A160.s.o
LOAD build/asm/A220.s.o
LOAD build/asm/A910.s.o
LOAD build/asm/DA40.s.o
LOAD build/asm/E270.s.o
LOAD build/asm/EBD0.s.o
LOAD build/asm/EC90.s.o
LOAD build/asm/10520.s.o
LOAD build/asm/10640.s.o
LOAD build/asm/108F0.s.o
LOAD build/asm/10D60.s.o
LOAD build/asm/12760.s.o
LOAD build/asm/14060.s.o
LOAD build/asm/14720.s.o
LOAD build/asm/15020.s.o
LOAD build/asm/15D60.s.o
LOAD build/asm/16840.s.o
LOAD build/asm/16BD0.s.o
LOAD build/asm/198F0.s.o
LOAD build/asm/19A90.s.o
LOAD build/asm/19AA0.s.o
LOAD build/src/code_1A230.c.o
LOAD build/asm/1CA50.s.o
LOAD build/asm/1CC30.s.o
LOAD build/asm/1EDC0.s.o
LOAD build/asm/1F0E0.s.o
LOAD build/asm/1FD50.s.o
LOAD build/asm/202A0.s.o
LOAD build/asm/20D90.s.o
LOAD build/asm/22680.s.o
LOAD build/asm/22EC0.s.o
LOAD build/asm/24530.s.o
LOAD build/asm/24890.s.o
LOAD build/asm/24B70.s.o
LOAD build/asm/24CC0.s.o
LOAD build/asm/24D00.s.o
LOAD build/asm/24DF0.s.o
LOAD build/asm/24E40.s.o
LOAD build/asm/24EE0.s.o
LOAD build/asm/25440.s.o
LOAD build/asm/255D0.s.o
LOAD build/asm/25760.s.o
LOAD build/asm/25A60.s.o
LOAD build/asm/25BE0.s.o
LOAD build/asm/25D70.s.o
LOAD build/asm/25F20.s.o
LOAD build/asm/25FC0.s.o
LOAD build/asm/26440.s.o
LOAD build/asm/26520.s.o
LOAD build/asm/265C0.s.o
LOAD build/asm/26610.s.o
LOAD build/asm/28470.s.o
LOAD build/asm/2E0B0.s.o
LOAD build/asm/2F1E0.s.o
LOAD build/asm/337B0.s.o
LOAD build/asm/37B40.s.o
LOAD build/asm/3AD90.s.o
LOAD build/asm/3C840.s.o
LOAD build/asm/3F900.s.o
LOAD build/asm/43090.s.o
LOAD build/asm/470E0.s.o
LOAD build/asm/4B490.s.o
LOAD build/asm/4FA50.s.o
LOAD build/asm/53A60.s.o
LOAD build/asm/57E00.s.o
LOAD build/asm/58530.s.o
LOAD build/asm/58710.s.o
LOAD build/asm/5D0C0.s.o
LOAD build/asm/5D350.s.o
LOAD build/asm/5F6B0.s.o
LOAD build/asm/61570.s.o
LOAD build/asm/62900.s.o
LOAD build/asm/63A60.s.o
LOAD build/asm/65610.s.o
LOAD build/asm/65FF0.s.o
LOAD build/asm/66230.s.o
LOAD build/asm/66340.s.o
LOAD build/asm/66740.s.o
LOAD build/asm/667A0.s.o
LOAD build/asm/669F0.s.o
LOAD build/asm/66A30.s.o
LOAD build/asm/66A60.s.o
LOAD build/asm/66B10.s.o
LOAD build/asm/66C20.s.o
LOAD build/asm/66C60.s.o
LOAD build/asm/66DD0.s.o
LOAD build/asm/67890.s.o
LOAD build/asm/678D0.s.o
LOAD build/asm/68220.s.o
LOAD build/asm/682C0.s.o
LOAD build/asm/682E0.s.o
LOAD build/asm/68340.s.o
LOAD build/asm/683A0.s.o
LOAD build/asm/68400.s.o
LOAD build/asm/68460.s.o
LOAD build/asm/684B0.s.o
LOAD build/src/code_68590.c.o
LOAD build/asm/68900.s.o
LOAD build/asm/68A80.s.o
LOAD build/asm/68AB0.s.o
LOAD build/asm/68B30.s.o
LOAD build/asm/68BE0.s.o
LOAD build/asm/68BF0.s.o
LOAD build/asm/69420.s.o
LOAD build/asm/6AD60.s.o
LOAD build/asm/6B170.s.o
LOAD build/asm/6B2C0.s.o
LOAD build/asm/6B350.s.o
LOAD build/asm/6B580.s.o
LOAD build/asm/6B670.s.o
LOAD build/asm/6B710.s.o
LOAD build/asm/6B850.s.o
LOAD build/asm/6B9F0.s.o
LOAD build/assets/7CC30.bin.o
                0x0000000000800000                __romPos = 0x0
                0x0000000000000000                _gp = 0x0
                0x0000000000000000                header_ROM_START = __romPos
                0x0000000000000000                header_VRAM = ADDR (.header)

.header         0x0000000000000000       0x40
                0x0000000000000000                header_DATA_START = .
                0x0000000000000000                header_s = .
 build/asm/header.s.o(.data)
 .data          0x0000000000000000       0x40 build/asm/header.s.o
                0x0000000000000040                header_DATA_END = .
                0x0000000000000040                header_DATA_SIZE = ABSOLUTE ((header_DATA_END - header_DATA_START))
                0x0000000000800000                __romPos = (__romPos + SIZEOF (.header))
                0x0000000000000040                header_ROM_END = __romPos
                0x0000000000000040                header_VRAM_END = .
                0x0000000000000040                boot_ROM_START = __romPos
                0x0000000000000040                boot_VRAM = ADDR (.boot)

.boot           0x0000000000000040      0xfc0
                0x0000000000000040                boot_DATA_START = .
                0x0000000000000040                boot_bin = .
 build/assets/boot.bin.o(.data)
 .data          0x0000000000000040      0xfc0 build/assets/boot.bin.o
                0x0000000000000040                _binary_assets_boot_bin_start
                0x0000000000001000                _binary_assets_boot_bin_end
                0x0000000000001000                boot_DATA_END = .
                0x0000000000000fc0                boot_DATA_SIZE = ABSOLUTE ((boot_DATA_END - boot_DATA_START))
                0x0000000000800000                __romPos = (__romPos + SIZEOF (.boot))
                0x0000000000001000                boot_ROM_END = __romPos
                0x0000000000001000                boot_VRAM_END = .
                0x0000000000001000                main_ROM_START = __romPos
                0x0000000080000400                main_VRAM = ADDR (.main)

.main           0x0000000080000400    0x7bc30 load address 0x0000000000001000
                0x0000000080000400                main_TEXT_START = .
 build/asm/1000.s.o(.text)
 .text          0x0000000080000400      0x1c0 build/asm/1000.s.o
                0x0000000080000400                func_80000400
 build/asm/11C0.s.o(.text)
 .text          0x00000000800005c0      0xe00 build/asm/11C0.s.o
                0x00000000800005c0                func_800005C0
                0x0000000080000610                func_80000610
                0x0000000080000638                func_80000638
                0x00000000800008d0                func_800008D0
                0x0000000080000978                func_80000978
                0x0000000080000a04                L80000A04
                0x0000000080000a14                L80000A14
                0x0000000080000a44                L80000A44
                0x0000000080000a60                L80000A60
                0x0000000080000abc                L80000ABC
                0x0000000080000afc                func_80000AFC
                0x0000000080000b4c                func_80000B4C
                0x0000000080000e24                func_80000E24
                0x00000000800013a0                func_800013A0
 build/asm/1FC0.s.o(.text)
 .text          0x00000000800013c0      0x3a0 build/asm/1FC0.s.o
                0x00000000800013c0                func_800013C0
                0x0000000080001418                func_80001418
                0x000000008000144c                func_8000144C
                0x00000000800015c4                func_800015C4
 build/asm/2360.s.o(.text)
 .text          0x0000000080001760      0xa20 build/asm/2360.s.o
                0x0000000080001760                func_80001760
                0x0000000080001a54                func_80001A54
                0x0000000080001ca0                func_80001CA0
                0x0000000080001e50                func_80001E50
                0x0000000080001e90                func_80001E90
                0x0000000080002028                func_80002028
                0x0000000080002060                func_80002060
 build/asm/2D80.s.o(.text)
 .text          0x0000000080002180     0x2ad0 build/asm/2D80.s.o
                0x0000000080002180                func_80002180
                0x00000000800029d8                L800029D8
                0x00000000800029f4                L800029F4
                0x0000000080002a10                L80002A10
                0x0000000080002a2c                L80002A2C
                0x0000000080002a48                L80002A48
                0x0000000080002a64                L80002A64
                0x0000000080002e3c                func_80002E3C
                0x0000000080002e98                L80002E98
                0x0000000080002eac                L80002EAC
                0x0000000080002ec0                L80002EC0
                0x0000000080002ed4                L80002ED4
                0x0000000080002ee8                L80002EE8
                0x0000000080002efc                L80002EFC
                0x0000000080002f10                L80002F10
                0x0000000080002f24                L80002F24
                0x0000000080002f38                L80002F38
                0x0000000080002f4c                L80002F4C
                0x0000000080002f74                func_80002F74
                0x0000000080003030                func_80003030
                0x00000000800031d8                func_800031D8
                0x0000000080003218                L80003218
                0x0000000080003230                L80003230
                0x0000000080003248                L80003248
                0x0000000080003260                L80003260
                0x0000000080003288                func_80003288
                0x0000000080003344                func_80003344
                0x0000000080003a4c                func_80003A4C
                0x0000000080003fc8                func_80003FC8
                0x00000000800047cc                L800047CC
                0x00000000800047e0                L800047E0
                0x00000000800047f4                L800047F4
                0x0000000080004808                L80004808
                0x000000008000481c                L8000481C
                0x0000000080004830                L80004830
                0x0000000080004844                L80004844
                0x0000000080004858                L80004858
                0x000000008000486c                L8000486C
                0x0000000080004880                L80004880
                0x00000000800048b0                func_800048B0
                0x0000000080004a34                func_80004A34
                0x0000000080004a5c                func_80004A5C
                0x0000000080004bf8                func_80004BF8
 build/asm/5850.s.o(.text)
 .text          0x0000000080004c50     0x1390 build/asm/5850.s.o
                0x0000000080004c50                func_80004C50
                0x0000000080004dbc                func_80004DBC
                0x0000000080004e20                L80004E20
                0x0000000080004e30                L80004E30
                0x0000000080004e50                L80004E50
                0x0000000080004e9c                L80004E9C
                0x0000000080004f00                L80004F00
                0x000000008000500c                L8000500C
                0x0000000080005094                L80005094
                0x00000000800050a8                L800050A8
                0x00000000800050bc                L800050BC
                0x0000000080005120                L80005120
                0x0000000080005140                L80005140
                0x00000000800051b0                L800051B0
                0x000000008000524c                L8000524C
                0x0000000080005268                L80005268
                0x000000008000529c                L8000529C
                0x00000000800052ac                L800052AC
                0x00000000800052fc                func_800052FC
                0x000000008000536c                func_8000536C
                0x00000000800053c0                L800053C0
                0x00000000800053d8                L800053D8
                0x00000000800053f0                L800053F0
                0x0000000080005418                L80005418
                0x0000000080005420                L80005420
                0x0000000080005434                func_80005434
                0x0000000080005494                L80005494
                0x00000000800058cc                L800058CC
                0x0000000080005924                L80005924
                0x000000008000597c                L8000597C
                0x00000000800059e0                L800059E0
                0x0000000080005c70                L80005C70
                0x0000000080005ca4                L80005CA4
                0x0000000080005d54                L80005D54
                0x0000000080005d6c                func_80005D6C
                0x0000000080005efc                func_80005EFC
                0x0000000080005f9c                func_80005F9C
 build/asm/6BE0.s.o(.text)
 .text          0x0000000080005fe0       0xb0 build/asm/6BE0.s.o
                0x0000000080005fe0                func_80005FE0
 build/asm/6C90.s.o(.text)
 .text          0x0000000080006090      0x210 build/asm/6C90.s.o
                0x0000000080006090                func_80006090
                0x0000000080006188                func_80006188
                0x00000000800061c4                func_800061C4
                0x00000000800061e8                L800061E8
                0x00000000800061f0                L800061F0
                0x00000000800061f8                L800061F8
                0x0000000080006200                L80006200
                0x0000000080006208                L80006208
                0x0000000080006214                func_80006214
 build/asm/6EA0.s.o(.text)
 .text          0x00000000800062a0     0x2eb0 build/asm/6EA0.s.o
                0x00000000800062a0                func_800062A0
                0x000000008000631c                func_8000631C
                0x00000000800063d0                func_800063D0
                0x000000008000644c                func_8000644C
                0x0000000080006564                func_80006564
                0x0000000080006704                func_80006704
                0x0000000080006888                func_80006888
                0x0000000080006fe0                func_80006FE0
                0x00000000800070c4                func_800070C4
                0x0000000080007150                func_80007150
                0x0000000080007310                func_80007310
                0x000000008000743c                L8000743C
                0x0000000080007454                L80007454
                0x000000008000746c                L8000746C
                0x000000008000747c                L8000747C
                0x0000000080007538                func_80007538
                0x00000000800077b4                func_800077B4
                0x00000000800077fc                L800077FC
                0x0000000080007808                L80007808
                0x0000000080007814                L80007814
                0x0000000080007820                L80007820
                0x000000008000782c                L8000782C
                0x0000000080007834                L80007834
                0x00000000800078a8                func_800078A8
                0x000000008000791c                func_8000791C
                0x0000000080007974                L80007974
                0x0000000080007980                L80007980
                0x000000008000798c                L8000798C
                0x0000000080007998                L80007998
                0x00000000800079a4                L800079A4
                0x00000000800079ac                L800079AC
                0x0000000080007a70                func_80007A70
                0x0000000080007a90                func_80007A90
                0x0000000080007ab0                func_80007AB0
                0x0000000080007bb0                func_80007BB0
                0x0000000080007d08                func_80007D08
                0x0000000080007fa0                func_80007FA0
                0x0000000080008330                func_80008330
                0x00000000800084ac                func_800084AC
                0x00000000800085f0                func_800085F0
                0x000000008000874c                func_8000874C
                0x000000008000877c                func_8000877C
                0x0000000080008af0                func_80008AF0
                0x0000000080008ce4                func_80008CE4
                0x0000000080008d18                func_80008D18
                0x0000000080008ed0                func_80008ED0
                0x0000000080009070                func_80009070
                0x000000008000908c                func_8000908C
 build/asm/9D50.s.o(.text)
 .text          0x0000000080009150      0x410 build/asm/9D50.s.o
                0x0000000080009150                func_80009150
                0x0000000080009298                func_80009298
                0x00000000800092c4                func_800092C4
                0x00000000800093dc                func_800093DC
                0x00000000800093e8                func_800093E8
                0x0000000080009410                func_80009410
                0x0000000080009438                func_80009438
                0x0000000080009460                func_80009460
                0x0000000080009488                func_80009488
                0x0000000080009494                func_80009494
 build/asm/A160.s.o(.text)
 .text          0x0000000080009560       0xc0 build/asm/A160.s.o
                0x0000000080009560                func_80009560
 build/asm/A220.s.o(.text)
 .text          0x0000000080009620      0x6f0 build/asm/A220.s.o
                0x0000000080009620                func_80009620
                0x000000008000970c                func_8000970C
                0x000000008000983c                func_8000983C
                0x000000008000991c                func_8000991C
                0x0000000080009b94                func_80009B94
 build/asm/A910.s.o(.text)
 .text          0x0000000080009d10     0x3130 build/asm/A910.s.o
                0x0000000080009d10                func_80009D10
                0x0000000080009d70                func_80009D70
                0x0000000080009da4                func_80009DA4
                0x0000000080009dd8                func_80009DD8
                0x0000000080009e5c                func_80009E5C
                0x0000000080009ee0                func_80009EE0
                0x0000000080009f88                func_80009F88
                0x000000008000a0a8                func_8000A0A8
                0x000000008000a164                func_8000A164
                0x000000008000a2c8                func_8000A2C8
                0x000000008000a350                func_8000A350
                0x000000008000a5b0                func_8000A5B0
                0x000000008000a65c                func_8000A65C
                0x000000008000a728                func_8000A728
                0x000000008000a808                func_8000A808
                0x000000008000a8f4                func_8000A8F4
                0x000000008000a9fc                func_8000A9FC
                0x000000008000ac24                func_8000AC24
                0x000000008000adb4                func_8000ADB4
                0x000000008000ae94                func_8000AE94
                0x000000008000b024                func_8000B024
                0x000000008000b104                func_8000B104
                0x000000008000b294                func_8000B294
                0x000000008000b388                func_8000B388
                0x000000008000b480                func_8000B480
                0x000000008000b574                func_8000B574
                0x000000008000b66c                func_8000B66C
                0x000000008000b764                func_8000B764
                0x000000008000b85c                func_8000B85C
                0x000000008000b954                func_8000B954
                0x000000008000ba4c                func_8000BA4C
                0x000000008000bb3c                func_8000BB3C
                0x000000008000bc04                func_8000BC04
                0x000000008000bcb0                func_8000BCB0
                0x000000008000bedc                func_8000BEDC
                0x000000008000c000                func_8000C000
                0x000000008000c020                func_8000C020
                0x000000008000c040                func_8000C040
                0x000000008000c060                func_8000C060
                0x000000008000c080                func_8000C080
                0x000000008000c0a0                func_8000C0A0
                0x000000008000c0c0                func_8000C0C0
                0x000000008000c0e0                func_8000C0E0
                0x000000008000c100                func_8000C100
                0x000000008000c120                func_8000C120
                0x000000008000c1ec                func_8000C1EC
                0x000000008000c3d0                func_8000C3D0
                0x000000008000c4ac                func_8000C4AC
                0x000000008000c4cc                func_8000C4CC
                0x000000008000c4ec                func_8000C4EC
                0x000000008000c5b4                func_8000C5B4
                0x000000008000c6b4                func_8000C6B4
                0x000000008000c938                func_8000C938
                0x000000008000c958                func_8000C958
                0x000000008000c978                func_8000C978
                0x000000008000c99c                func_8000C99C
                0x000000008000c9bc                func_8000C9BC
                0x000000008000c9dc                func_8000C9DC
                0x000000008000cbb4                func_8000CBB4
                0x000000008000cbd4                func_8000CBD4
                0x000000008000cbf4                func_8000CBF4
                0x000000008000cc14                func_8000CC14
                0x000000008000ccd0                func_8000CCD0
                0x000000008000ccf0                func_8000CCF0
                0x000000008000cd5c                func_8000CD5C
                0x000000008000cdb0                func_8000CDB0
                0x000000008000cdd0                func_8000CDD0
                0x000000008000cdf8                func_8000CDF8
                0x000000008000ce04                func_8000CE04
                0x000000008000ce14                func_8000CE14
 build/asm/DA40.s.o(.text)
 .text          0x000000008000ce40      0x830 build/asm/DA40.s.o
                0x000000008000ce40                func_8000CE40
                0x000000008000cfc4                func_8000CFC4
                0x000000008000d148                func_8000D148
                0x000000008000d188                func_8000D188
                0x000000008000d2b8                func_8000D2B8
                0x000000008000d658                func_8000D658
                0x000000008000d660                func_8000D660
 build/asm/E270.s.o(.text)
 .text          0x000000008000d670      0x960 build/asm/E270.s.o
                0x000000008000d670                func_8000D670
                0x000000008000d708                func_8000D708
                0x000000008000d97c                func_8000D97C
                0x000000008000dbc0                func_8000DBC0
                0x000000008000de54                func_8000DE54
                0x000000008000dedc                func_8000DEDC
                0x000000008000dfbc                func_8000DFBC
 build/asm/EBD0.s.o(.text)
 .text          0x000000008000dfd0       0xc0 build/asm/EBD0.s.o
                0x000000008000dfd0                func_8000DFD0
 build/asm/EC90.s.o(.text)
 .text          0x000000008000e090     0x1890 build/asm/EC90.s.o
                0x000000008000e090                func_8000E090
                0x000000008000e204                func_8000E204
                0x000000008000e428                func_8000E428
                0x000000008000f1d8                func_8000F1D8
                0x000000008000f22c                L8000F22C
                0x000000008000f270                L8000F270
                0x000000008000f2b4                L8000F2B4
                0x000000008000f2f8                L8000F2F8
                0x000000008000f33c                L8000F33C
                0x000000008000f380                L8000F380
                0x000000008000f3c4                L8000F3C4
                0x000000008000f408                L8000F408
                0x000000008000f44c                L8000F44C
                0x000000008000f490                L8000F490
                0x000000008000f51c                func_8000F51C
                0x000000008000f5f4                func_8000F5F4
                0x000000008000f904                func_8000F904
                0x000000008000f90c                func_8000F90C
 build/asm/10520.s.o(.text)
 .text          0x000000008000f920      0x120 build/asm/10520.s.o
                0x000000008000f920                func_8000F920
                0x000000008000f990                func_8000F990
 build/asm/10640.s.o(.text)
 .text          0x000000008000fa40      0x2b0 build/asm/10640.s.o
                0x000000008000fa40                func_8000FA40
                0x000000008000fafc                func_8000FAFC
                0x000000008000fb10                func_8000FB10
                0x000000008000fb90                func_8000FB90
                0x000000008000fc10                func_8000FC10
                0x000000008000fcd0                func_8000FCD0
 build/asm/108F0.s.o(.text)
 .text          0x000000008000fcf0      0x470 build/asm/108F0.s.o
                0x000000008000fcf0                func_8000FCF0
                0x000000008000ff38                func_8000FF38
 build/asm/10D60.s.o(.text)
 .text          0x0000000080010160     0x1a00 build/asm/10D60.s.o
                0x0000000080010160                func_80010160
                0x000000008001024c                func_8001024C
                0x0000000080010548                func_80010548
                0x0000000080010628                func_80010628
                0x0000000080010694                func_80010694
                0x000000008001071c                func_8001071C
                0x0000000080010870                func_80010870
                0x0000000080010a68                func_80010A68
                0x0000000080010b14                func_80010B14
                0x0000000080010bbc                func_80010BBC
                0x0000000080010c14                func_80010C14
                0x0000000080010c4c                func_80010C4C
                0x0000000080010c88                func_80010C88
                0x0000000080010d08                func_80010D08
                0x0000000080010d80                func_80010D80
                0x0000000080010d88                func_80010D88
                0x0000000080010dcc                func_80010DCC
                0x0000000080010e40                func_80010E40
                0x0000000080010f78                func_80010F78
                0x0000000080011214                func_80011214
                0x00000000800112b8                func_800112B8
                0x000000008001136c                func_8001136C
                0x00000000800113a0                func_800113A0
                0x00000000800113dc                func_800113DC
                0x0000000080011428                func_80011428
                0x000000008001145c                func_8001145C
                0x0000000080011468                func_80011468
                0x0000000080011484                func_80011484
                0x00000000800114a0                func_800114A0
                0x00000000800114c0                func_800114C0
                0x000000008001159c                func_8001159C
                0x0000000080011624                func_80011624
                0x00000000800116ac                func_800116AC
                0x00000000800117b0                func_800117B0
                0x0000000080011820                func_80011820
                0x00000000800118b4                func_800118B4
 build/asm/12760.s.o(.text)
 .text          0x0000000080011b60     0x1900 build/asm/12760.s.o
                0x0000000080011b60                func_80011B60
                0x0000000080011ccc                func_80011CCC
                0x0000000080011dcc                func_80011DCC
                0x0000000080011ec4                func_80011EC4
                0x00000000800122c4                func_800122C4
                0x000000008001270c                func_8001270C
                0x0000000080012744                func_80012744
                0x0000000080012770                func_80012770
                0x0000000080012848                func_80012848
                0x00000000800128bc                func_800128BC
                0x0000000080012904                func_80012904
                0x0000000080012b78                func_80012B78
                0x0000000080012d5c                func_80012D5C
                0x0000000080012da0                func_80012DA0
                0x0000000080012efc                func_80012EFC
                0x0000000080012fdc                func_80012FDC
                0x0000000080013020                func_80013020
                0x0000000080013428                func_80013428
 build/asm/14060.s.o(.text)
 .text          0x0000000080013460      0x6c0 build/asm/14060.s.o
                0x0000000080013460                func_80013460
                0x00000000800135a0                func_800135A0
                0x000000008001369c                func_8001369C
                0x00000000800136dc                func_800136DC
                0x0000000080013a98                func_80013A98
 build/asm/14720.s.o(.text)
 .text          0x0000000080013b20      0x900 build/asm/14720.s.o
                0x0000000080013b20                func_80013B20
                0x0000000080013c8c                func_80013C8C
                0x0000000080013f40                func_80013F40
                0x0000000080013fa8                func_80013FA8
                0x0000000080014000                func_80014000
                0x000000008001412c                func_8001412C
 build/asm/15020.s.o(.text)
 .text          0x0000000080014420      0xd40 build/asm/15020.s.o
                0x0000000080014420                func_80014420
                0x0000000080014534                func_80014534
                0x0000000080014718                func_80014718
                0x0000000080014964                func_80014964
                0x000000008001496c                func_8001496C
                0x0000000080014c78                func_80014C78
 build/asm/15D60.s.o(.text)
 .text          0x0000000080015160      0xae0 build/asm/15D60.s.o
                0x0000000080015160                func_80015160
                0x00000000800151e0                func_800151E0
                0x0000000080015260                func_80015260
                0x00000000800152fc                func_800152FC
                0x0000000080015594                func_80015594
                0x000000008001568c                func_8001568C
                0x00000000800156e4                func_800156E4
                0x000000008001573c                func_8001573C
                0x000000008001583c                func_8001583C
                0x0000000080015898                func_80015898
                0x0000000080015a2c                func_80015A2C
                0x0000000080015a8c                func_80015A8C
 build/asm/16840.s.o(.text)
 .text          0x0000000080015c40      0x390 build/asm/16840.s.o
                0x0000000080015c40                func_80015C40
                0x0000000080015c8c                func_80015C8C
                0x0000000080015ce8                L80015CE8
                0x0000000080015cf8                L80015CF8
                0x0000000080015d08                L80015D08
                0x0000000080015d18                L80015D18
                0x0000000080015d28                L80015D28
                0x0000000080015d38                L80015D38
                0x0000000080015d48                L80015D48
                0x0000000080015d60                L80015D60
                0x0000000080015d70                func_80015D70
                0x0000000080015e04                func_80015E04
                0x0000000080015ec0                func_80015EC0
                0x0000000080015f2c                func_80015F2C
 build/asm/16BD0.s.o(.text)
 .text          0x0000000080015fd0     0x2d20 build/asm/16BD0.s.o
                0x0000000080015fd0                func_80015FD0
                0x00000000800161cc                L800161CC
                0x00000000800161e0                L800161E0
                0x00000000800161f4                L800161F4
                0x0000000080016228                L80016228
                0x0000000080016238                func_80016238
                0x00000000800162c0                func_800162C0
                0x0000000080016300                L80016300
                0x0000000080016320                L80016320
                0x0000000080016330                L80016330
                0x000000008001638c                L8001638C
                0x00000000800163b8                L800163B8
                0x0000000080016414                L80016414
                0x0000000080016438                L80016438
                0x0000000080016464                func_80016464
                0x0000000080016890                func_80016890
                0x00000000800169e0                func_800169E0
                0x0000000080016b58                func_80016B58
                0x0000000080016b7c                func_80016B7C
                0x0000000080016d44                func_80016D44
                0x0000000080016da8                L80016DA8
                0x0000000080016e40                L80016E40
                0x0000000080016e88                L80016E88
                0x0000000080016ec8                L80016EC8
                0x0000000080016f14                L80016F14
                0x0000000080016f58                L80016F58
                0x0000000080016f94                L80016F94
                0x000000008001701c                L8001701C
                0x000000008001705c                L8001705C
                0x000000008001709c                L8001709C
                0x00000000800170dc                L800170DC
                0x000000008001711c                L8001711C
                0x000000008001728c                func_8001728C
                0x00000000800172d8                L800172D8
                0x0000000080017314                L80017314
                0x00000000800173a8                L800173A8
                0x00000000800173ec                L800173EC
                0x0000000080017454                func_80017454
                0x000000008001745c                func_8001745C
                0x00000000800176b4                func_800176B4
                0x00000000800177a0                func_800177A0
                0x000000008001787c                func_8001787C
                0x00000000800178f0                func_800178F0
                0x0000000080017ca8                func_80017CA8
                0x0000000080017dbc                func_80017DBC
                0x0000000080017ee0                func_80017EE0
                0x0000000080018008                func_80018008
                0x000000008001803c                L8001803C
                0x00000000800180d8                L800180D8
                0x00000000800181d4                L800181D4
                0x0000000080018274                func_80018274
                0x0000000080018380                func_80018380
                0x0000000080018750                L80018750
                0x000000008001875c                L8001875C
                0x00000000800187a8                func_800187A8
                0x0000000080018944                func_80018944
                0x0000000080018968                func_80018968
                0x00000000800189a8                L800189A8
                0x00000000800189e8                L800189E8
                0x0000000080018a58                func_80018A58
                0x0000000080018ba0                func_80018BA0
                0x0000000080018bd0                L80018BD0
                0x0000000080018c0c                L80018C0C
                0x0000000080018c40                func_80018C40
                0x0000000080018c84                func_80018C84
 build/asm/198F0.s.o(.text)
 .text          0x0000000080018cf0      0x1a0 build/asm/198F0.s.o
                0x0000000080018cf0                func_80018CF0
                0x0000000080018d6c                func_80018D6C
 build/asm/19A90.s.o(.text)
 .text          0x0000000080018e90       0x10 build/asm/19A90.s.o
                0x0000000080018e90                func_80018E90
 build/asm/19AA0.s.o(.text)
 .text          0x0000000080018ea0      0x790 build/asm/19AA0.s.o
                0x0000000080018ea0                func_80018EA0
                0x00000000800191fc                func_800191FC
                0x0000000080019508                func_80019508
 build/src/code_1A230.c.o(.text)
 .text          0x0000000080019630     0x2820 build/src/code_1A230.c.o
                0x0000000080019630                func_80019630
                0x00000000800199a0                func_800199A0
                0x0000000080019b90                func_80019B90
                0x0000000080019d0c                func_80019D0C
                0x000000008001a020                func_8001A020
                0x000000008001a750                func_8001A750
                0x000000008001a7fc                func_8001A7FC
                0x000000008001a9d4                func_8001A9D4
                0x000000008001ab94                func_8001AB94
                0x000000008001ac64                func_8001AC64
                0x000000008001adc4                func_8001ADC4
                0x000000008001affc                func_8001AFFC
                0x000000008001b004                func_8001B004
                0x000000008001b35c                func_8001B35C
                0x000000008001b58c                func_8001B58C
                0x000000008001b690                L8001B690
                0x000000008001b7f0                L8001B7F0
                0x000000008001bad4                func_8001BAD4
                0x000000008001bb20                func_8001BB20
 build/asm/1CA50.s.o(.text)
 .text          0x000000008001be50      0x1e0 build/asm/1CA50.s.o
                0x000000008001be50                func_8001BE50
                0x000000008001bfe4                func_8001BFE4
 build/asm/1CC30.s.o(.text)
 .text          0x000000008001c030     0x2190 build/asm/1CC30.s.o
                0x000000008001c030                func_8001C030
                0x000000008001c268                func_8001C268
                0x000000008001c29c                func_8001C29C
                0x000000008001c758                func_8001C758
                0x000000008001c910                func_8001C910
                0x000000008001c970                L8001C970
                0x000000008001ca20                L8001CA20
                0x000000008001ca7c                L8001CA7C
                0x000000008001cb5c                L8001CB5C
                0x000000008001cc00                L8001CC00
                0x000000008001cc5c                L8001CC5C
                0x000000008001ccb8                L8001CCB8
                0x000000008001cd18                L8001CD18
                0x000000008001cd68                L8001CD68
                0x000000008001cdb8                L8001CDB8
                0x000000008001ce30                func_8001CE30
                0x000000008001ce58                L8001CE58
                0x000000008001ce7c                L8001CE7C
                0x000000008001cea0                L8001CEA0
                0x000000008001cec4                L8001CEC4
                0x000000008001cee8                L8001CEE8
                0x000000008001cf0c                L8001CF0C
                0x000000008001cf48                func_8001CF48
                0x000000008001d218                func_8001D218
                0x000000008001d418                func_8001D418
                0x000000008001d598                func_8001D598
                0x000000008001d660                func_8001D660
                0x000000008001d7f0                func_8001D7F0
                0x000000008001d8d0                func_8001D8D0
                0x000000008001dd30                func_8001DD30
                0x000000008001dd80                func_8001DD80
                0x000000008001df40                func_8001DF40
                0x000000008001df74                func_8001DF74
                0x000000008001e004                func_8001E004
                0x000000008001e06c                func_8001E06C
 build/asm/1EDC0.s.o(.text)
 .text          0x000000008001e1c0      0x320 build/asm/1EDC0.s.o
                0x000000008001e1c0                func_8001E1C0
                0x000000008001e218                func_8001E218
                0x000000008001e340                func_8001E340
                0x000000008001e370                L8001E370
                0x000000008001e380                L8001E380
                0x000000008001e414                L8001E414
                0x000000008001e43c                L8001E43C
                0x000000008001e45c                L8001E45C
                0x000000008001e46c                func_8001E46C
                0x000000008001e4a4                func_8001E4A4
 build/asm/1F0E0.s.o(.text)
 .text          0x000000008001e4e0      0xc70 build/asm/1F0E0.s.o
                0x000000008001e4e0                func_8001E4E0
                0x000000008001e540                func_8001E540
                0x000000008001e6fc                func_8001E6FC
                0x000000008001e870                func_8001E870
                0x000000008001e8a4                func_8001E8A4
                0x000000008001e8d8                func_8001E8D8
                0x000000008001e950                L8001E950
                0x000000008001e974                L8001E974
                0x000000008001e984                L8001E984
                0x000000008001e9a8                L8001E9A8
                0x000000008001e9cc                L8001E9CC
                0x000000008001e9dc                L8001E9DC
                0x000000008001ea00                L8001EA00
                0x000000008001ea60                L8001EA60
                0x000000008001ea94                L8001EA94
                0x000000008001eae4                L8001EAE4
                0x000000008001eb1c                func_8001EB1C
                0x000000008001ec78                func_8001EC78
                0x000000008001edbc                func_8001EDBC
                0x000000008001f01c                func_8001F01C
                0x000000008001f040                func_8001F040
                0x000000008001f0b4                func_8001F0B4
                0x000000008001f0d8                func_8001F0D8
                0x000000008001f10c                func_8001F10C
                0x000000008001f140                func_8001F140
 build/asm/1FD50.s.o(.text)
 .text          0x000000008001f150      0x550 build/asm/1FD50.s.o
                0x000000008001f150                func_8001F150
                0x000000008001f174                func_8001F174
                0x000000008001f2bc                func_8001F2BC
                0x000000008001f2e8                func_8001F2E8
                0x000000008001f310                L8001F310
                0x000000008001f37c                L8001F37C
                0x000000008001f3e8                L8001F3E8
                0x000000008001f454                L8001F454
                0x000000008001f4c0                L8001F4C0
                0x000000008001f52c                L8001F52C
                0x000000008001f59c                func_8001F59C
                0x000000008001f694                func_8001F694
 build/asm/202A0.s.o(.text)
 .text          0x000000008001f6a0      0xaf0 build/asm/202A0.s.o
                0x000000008001f6a0                func_8001F6A0
                0x000000008001f6b4                func_8001F6B4
                0x000000008001f6c8                func_8001F6C8
                0x000000008001f6f4                func_8001F6F4
                0x000000008001f700                func_8001F700
                0x000000008001f75c                func_8001F75C
                0x000000008001f790                func_8001F790
                0x000000008001f998                func_8001F998
                0x000000008001fb48                L8001FB48
                0x000000008001fcac                L8001FCAC
 build/asm/20D90.s.o(.text)
 .text          0x0000000080020190     0x18f0 build/asm/20D90.s.o
                0x0000000080020190                func_80020190
                0x0000000080020260                func_80020260
                0x0000000080020418                func_80020418
                0x00000000800204e0                func_800204E0
                0x0000000080020504                func_80020504
                0x00000000800205ac                func_800205AC
                0x0000000080020624                func_80020624
                0x0000000080020684                func_80020684
                0x00000000800206b0                func_800206B0
                0x0000000080020748                func_80020748
                0x00000000800207f4                func_800207F4
                0x00000000800209b0                func_800209B0
                0x0000000080020b68                func_80020B68
                0x0000000080020d1c                func_80020D1C
                0x0000000080020d8c                L80020D8C
                0x0000000080020da8                L80020DA8
                0x0000000080020dc4                L80020DC4
                0x0000000080020de0                L80020DE0
                0x0000000080020dfc                L80020DFC
                0x0000000080020e18                L80020E18
                0x0000000080020ea8                func_80020EA8
                0x0000000080020efc                func_80020EFC
                0x0000000080021078                func_80021078
                0x0000000080021674                func_80021674
                0x00000000800216e0                func_800216E0
                0x00000000800217f4                func_800217F4
                0x0000000080021884                L80021884
                0x000000008002188c                L8002188C
                0x0000000080021894                L80021894
                0x000000008002189c                L8002189C
                0x00000000800218a4                L800218A4
                0x00000000800218b4                L800218B4
                0x00000000800218c4                L800218C4
                0x00000000800218d0                L800218D0
                0x00000000800218d8                L800218D8
                0x0000000080021a70                func_80021A70
 build/asm/22680.s.o(.text)
 .text          0x0000000080021a80      0x840 build/asm/22680.s.o
                0x0000000080021a80                func_80021A80
                0x0000000080021b38                func_80021B38
 build/asm/22EC0.s.o(.text)
 .text          0x00000000800222c0     0x1670 build/asm/22EC0.s.o
                0x00000000800222c0                func_800222C0
                0x0000000080022408                func_80022408
                0x00000000800226ac                func_800226AC
                0x0000000080022788                func_80022788
                0x00000000800227e4                func_800227E4
                0x0000000080022b40                func_80022B40
                0x0000000080022c30                func_80022C30
                0x0000000080022fd0                func_80022FD0
                0x00000000800230c8                func_800230C8
                0x00000000800231c4                L800231C4
                0x0000000080023350                L80023350
 build/asm/24530.s.o(.text)
 .text          0x0000000080023930      0x360 build/asm/24530.s.o
                0x0000000080023930                func_80023930
 build/asm/24890.s.o(.text)
 .text          0x0000000080023c90      0x2e0 build/asm/24890.s.o
                0x0000000080023c90                func_80023C90
                0x0000000080023e7c                func_80023E7C
 build/asm/24B70.s.o(.text)
 .text          0x0000000080023f70      0x150 build/asm/24B70.s.o
                0x0000000080023f70                func_80023F70
                0x0000000080024094                func_80024094
 build/asm/24CC0.s.o(.text)
 .text          0x00000000800240c0       0x40 build/asm/24CC0.s.o
                0x00000000800240c0                func_800240C0
                0x00000000800240f0                func_800240F0
 build/asm/24D00.s.o(.text)
 .text          0x0000000080024100       0xf0 build/asm/24D00.s.o
                0x0000000080024100                func_80024100
 build/asm/24DF0.s.o(.text)
 .text          0x00000000800241f0       0x50 build/asm/24DF0.s.o
                0x00000000800241f0                func_800241F0
 build/asm/24E40.s.o(.text)
 .text          0x0000000080024240       0xa0 build/asm/24E40.s.o
                0x0000000080024240                func_80024240
 build/asm/24EE0.s.o(.text)
 .text          0x00000000800242e0      0x560 build/asm/24EE0.s.o
                0x00000000800242e0                func_800242E0
                0x000000008002431c                func_8002431C
                0x0000000080024370                func_80024370
 build/asm/25440.s.o(.text)
 .text          0x0000000080024840      0x190 build/asm/25440.s.o
                0x0000000080024840                func_80024840
                0x0000000080024988                func_80024988
 build/asm/255D0.s.o(.text)
 .text          0x00000000800249d0      0x190 build/asm/255D0.s.o
                0x00000000800249d0                func_800249D0
                0x0000000080024b18                func_80024B18
 build/asm/25760.s.o(.text)
 .text          0x0000000080024b60      0x300 build/asm/25760.s.o
                0x0000000080024b60                func_80024B60
                0x0000000080024c9c                func_80024C9C
                0x0000000080024ce0                func_80024CE0
                0x0000000080024e14                func_80024E14
 build/asm/25A60.s.o(.text)
 .text          0x0000000080024e60      0x180 build/asm/25A60.s.o
                0x0000000080024e60                func_80024E60
                0x0000000080024f94                func_80024F94
 build/asm/25BE0.s.o(.text)
 .text          0x0000000080024fe0      0x190 build/asm/25BE0.s.o
                0x0000000080024fe0                func_80024FE0
                0x0000000080025120                func_80025120
 build/asm/25D70.s.o(.text)
 .text          0x0000000080025170      0x1b0 build/asm/25D70.s.o
                0x0000000080025170                func_80025170
                0x00000000800252d0                func_800252D0
 build/asm/25F20.s.o(.text)
 .text          0x0000000080025320       0xa0 build/asm/25F20.s.o
                0x0000000080025320                func_80025320
 build/asm/25FC0.s.o(.text)
 .text          0x00000000800253c0      0x480 build/asm/25FC0.s.o
                0x00000000800253c0                func_800253C0
                0x0000000080025458                func_80025458
                0x00000000800254f0                func_800254F0
                0x0000000080025578                func_80025578
                0x0000000080025610                func_80025610
                0x00000000800256c0                func_800256C0
                0x0000000080025778                func_80025778
 build/asm/26440.s.o(.text)
 .text          0x0000000080025840       0xe0 build/asm/26440.s.o
                0x0000000080025840                func_80025840
 build/asm/26520.s.o(.text)
 .text          0x0000000080025920       0xa0 build/asm/26520.s.o
                0x0000000080025920                func_80025920
                0x000000008002594c                func_8002594C
 build/asm/265C0.s.o(.text)
 .text          0x00000000800259c0       0x50 build/asm/265C0.s.o
                0x00000000800259c0                func_800259C0
 build/asm/26610.s.o(.text)
 .text          0x0000000080025a10     0x1e60 build/asm/26610.s.o
                0x0000000080025a10                func_80025A10
                0x0000000080026000                func_80026000
                0x0000000080026120                func_80026120
                0x0000000080026384                func_80026384
                0x000000008002648c                func_8002648C
                0x00000000800264d4                func_800264D4
                0x0000000080026524                func_80026524
                0x0000000080026578                func_80026578
                0x0000000080026598                L80026598
                0x00000000800265a0                func_800265A0
                0x00000000800265d0                func_800265D0
                0x0000000080026b34                func_80026B34
                0x0000000080026de8                func_80026DE8
                0x0000000080027104                func_80027104
                0x0000000080027424                func_80027424
                0x00000000800275ec                func_800275EC
                0x0000000080027614                L80027614
                0x0000000080027660                L80027660
                0x00000000800276ac                L800276AC
                0x00000000800276f8                L800276F8
                0x0000000080027744                L80027744
                0x0000000080027790                L80027790
                0x00000000800277e0                func_800277E0
 build/asm/28470.s.o(.text)
 .text          0x0000000080027870     0x5c40 build/asm/28470.s.o
                0x0000000080027870                func_80027870
                0x0000000080028298                func_80028298
                0x00000000800283d4                func_800283D4
                0x00000000800285b0                func_800285B0
                0x0000000080028710                func_80028710
                0x0000000080028950                func_80028950
                0x00000000800289d4                func_800289D4
                0x0000000080028b04                func_80028B04
                0x0000000080028c9c                func_80028C9C
                0x0000000080028db8                func_80028DB8
                0x0000000080029250                func_80029250
                0x0000000080029474                func_80029474
                0x0000000080029514                func_80029514
                0x00000000800297dc                func_800297DC
                0x0000000080029a94                func_80029A94
                0x0000000080029b6c                func_80029B6C
                0x0000000080029e98                func_80029E98
                0x0000000080029f70                func_80029F70
                0x000000008002a0d0                func_8002A0D0
                0x000000008002a8f0                func_8002A8F0
                0x000000008002ad2c                func_8002AD2C
                0x000000008002b128                func_8002B128
                0x000000008002b2d8                func_8002B2D8
                0x000000008002b6d0                func_8002B6D0
                0x000000008002b8f0                func_8002B8F0
                0x000000008002bc28                func_8002BC28
                0x000000008002be5c                func_8002BE5C
                0x000000008002c080                func_8002C080
                0x000000008002c1e8                func_8002C1E8
                0x000000008002c300                func_8002C300
                0x000000008002c480                func_8002C480
                0x000000008002cb40                func_8002CB40
                0x000000008002cbd4                func_8002CBD4
                0x000000008002cd88                func_8002CD88
                0x000000008002d0c4                func_8002D0C4
                0x000000008002d2a8                func_8002D2A8
                0x000000008002d350                func_8002D350
 build/asm/2E0B0.s.o(.text)
 .text          0x000000008002d4b0     0x1130 build/asm/2E0B0.s.o
                0x000000008002d4b0                func_8002D4B0
                0x000000008002d8cc                func_8002D8CC
                0x000000008002da2c                func_8002DA2C
                0x000000008002df78                func_8002DF78
                0x000000008002e510                func_8002E510
 build/asm/2F1E0.s.o(.text)
 .text          0x000000008002e5e0     0x45d0 build/asm/2F1E0.s.o
                0x000000008002e5e0                func_8002E5E0
                0x000000008002e6a8                func_8002E6A8
                0x000000008002eb44                func_8002EB44
                0x000000008002edf8                func_8002EDF8
                0x000000008002f290                func_8002F290
                0x000000008002f3ec                func_8002F3EC
                0x000000008002f7d8                func_8002F7D8
                0x000000008002f994                func_8002F994
                0x00000000800302e8                func_800302E8
                0x0000000080030408                L80030408
                0x000000008003046c                L8003046C
                0x00000000800304d0                L800304D0
                0x0000000080030534                L80030534
                0x0000000080030598                L80030598
                0x00000000800305fc                L800305FC
                0x00000000800306e0                func_800306E0
                0x00000000800308d4                L800308D4
                0x0000000080030920                L80030920
                0x000000008003096c                L8003096C
                0x00000000800309b8                L800309B8
                0x0000000080030a04                L80030A04
                0x0000000080030a50                L80030A50
                0x0000000080030aec                L80030AEC
                0x0000000080030b38                L80030B38
                0x0000000080030b84                L80030B84
                0x0000000080030bd0                L80030BD0
                0x0000000080030c1c                L80030C1C
                0x0000000080030c68                L80030C68
                0x0000000080030d44                func_80030D44
                0x0000000080030d80                L80030D80
                0x0000000080030dcc                L80030DCC
                0x0000000080030e18                L80030E18
                0x0000000080030e64                L80030E64
                0x0000000080030eb0                L80030EB0
                0x0000000080030efc                L80030EFC
                0x0000000080030f70                func_80030F70
                0x0000000080030fb4                L80030FB4
                0x0000000080031000                L80031000
                0x000000008003104c                L8003104C
                0x0000000080031098                L80031098
                0x00000000800310e4                L800310E4
                0x0000000080031130                L80031130
                0x00000000800311b4                L800311B4
                0x0000000080031200                L80031200
                0x000000008003124c                L8003124C
                0x0000000080031298                L80031298
                0x00000000800312e4                L800312E4
                0x0000000080031330                L80031330
                0x00000000800313a0                func_800313A0
                0x000000008003150c                func_8003150C
                0x0000000080031ae8                func_80031AE8
                0x0000000080031b40                func_80031B40
                0x0000000080031e34                func_80031E34
                0x0000000080032418                func_80032418
                0x0000000080032754                func_80032754
                0x0000000080032a90                func_80032A90
                0x0000000080032aec                func_80032AEC
                0x0000000080032b48                func_80032B48
 build/asm/337B0.s.o(.text)
 .text          0x0000000080032bb0     0x4390 build/asm/337B0.s.o
                0x0000000080032bb0                func_80032BB0
                0x00000000800335ac                func_800335AC
                0x0000000080033950                func_80033950
                0x0000000080033bf4                func_80033BF4
                0x0000000080033d88                L80033D88
                0x0000000080033de8                L80033DE8
                0x0000000080033e44                L80033E44
                0x0000000080033e9c                func_80033E9C
                0x0000000080034100                func_80034100
                0x00000000800343b0                func_800343B0
                0x000000008003476c                func_8003476C
                0x0000000080034d08                func_80034D08
                0x0000000080034d44                L80034D44
                0x0000000080034e60                L80034E60
                0x0000000080034f7c                L80034F7C
                0x0000000080035060                L80035060
                0x0000000080035144                L80035144
                0x0000000080035220                L80035220
                0x0000000080035254                func_80035254
                0x000000008003561c                func_8003561C
                0x0000000080035844                func_80035844
                0x0000000080035a98                func_80035A98
                0x0000000080035ba4                func_80035BA4
                0x0000000080035fa0                func_80035FA0
                0x0000000080036a80                func_80036A80
                0x0000000080036af0                func_80036AF0
                0x0000000080036c54                func_80036C54
                0x0000000080036d00                func_80036D00
 build/asm/37B40.s.o(.text)
 .text          0x0000000080036f40     0x3250 build/asm/37B40.s.o
                0x0000000080036f40                func_80036F40
                0x0000000080037280                func_80037280
                0x00000000800375e8                func_800375E8
                0x0000000080037870                func_80037870
                0x0000000080037d30                func_80037D30
                0x0000000080037da0                func_80037DA0
                0x0000000080037fc8                func_80037FC8
                0x0000000080038bf4                func_80038BF4
                0x0000000080038fd0                func_80038FD0
                0x00000000800390b0                func_800390B0
                0x00000000800394c8                func_800394C8
                0x0000000080039670                func_80039670
                0x0000000080039868                func_80039868
                0x0000000080039d9c                func_80039D9C
 build/asm/3AD90.s.o(.text)
 .text          0x000000008003a190     0x1ab0 build/asm/3AD90.s.o
                0x000000008003a190                func_8003A190
                0x000000008003a280                func_8003A280
                0x000000008003a7c4                func_8003A7C4
                0x000000008003ada8                func_8003ADA8
                0x000000008003b1f0                func_8003B1F0
                0x000000008003b398                func_8003B398
                0x000000008003b5c4                func_8003B5C4
                0x000000008003b9a8                func_8003B9A8
 build/asm/3C840.s.o(.text)
 .text          0x000000008003bc40     0x30c0 build/asm/3C840.s.o
                0x000000008003bc40                func_8003BC40
                0x000000008003c040                func_8003C040
                0x000000008003c27c                L8003C27C
                0x000000008003c28c                L8003C28C
                0x000000008003c29c                L8003C29C
                0x000000008003c2ac                L8003C2AC
                0x000000008003c2bc                L8003C2BC
                0x000000008003c2cc                L8003C2CC
                0x000000008003c498                func_8003C498
                0x000000008003c794                func_8003C794
                0x000000008003c9f8                func_8003C9F8
                0x000000008003cac8                func_8003CAC8
                0x000000008003cc60                func_8003CC60
                0x000000008003cd08                func_8003CD08
                0x000000008003cdc4                func_8003CDC4
                0x000000008003cec0                func_8003CEC0
                0x000000008003d300                func_8003D300
                0x000000008003d5f4                func_8003D5F4
                0x000000008003dc0c                func_8003DC0C
                0x000000008003ddc0                func_8003DDC0
                0x000000008003de4c                func_8003DE4C
                0x000000008003e02c                func_8003E02C
                0x000000008003e0fc                func_8003E0FC
                0x000000008003e3c4                func_8003E3C4
                0x000000008003e8a0                func_8003E8A0
                0x000000008003e9b8                func_8003E9B8
                0x000000008003ec6c                func_8003EC6C
 build/asm/3F900.s.o(.text)
 .text          0x000000008003ed00     0x3790 build/asm/3F900.s.o
                0x000000008003ed00                func_8003ED00
                0x000000008003ed7c                L8003ED7C
                0x000000008003ed90                L8003ED90
                0x000000008003eda4                L8003EDA4
                0x000000008003edb8                L8003EDB8
                0x000000008003edfc                func_8003EDFC
                0x000000008003eeb8                L8003EEB8
                0x000000008003eef8                L8003EEF8
                0x000000008003ef10                L8003EF10
                0x000000008003ef28                L8003EF28
                0x000000008003ef88                func_8003EF88
                0x000000008003f4a8                func_8003F4A8
                0x000000008003f98c                func_8003F98C
                0x000000008003fc40                func_8003FC40
                0x0000000080040010                func_80040010
                0x0000000080040084                L80040084
                0x00000000800400a0                L800400A0
                0x00000000800400bc                L800400BC
                0x00000000800400d8                L800400D8
                0x00000000800400f4                L800400F4
                0x0000000080040138                func_80040138
                0x0000000080040698                func_80040698
                0x0000000080040860                func_80040860
                0x000000008004089c                L8004089C
                0x00000000800408e8                L800408E8
                0x0000000080040934                L80040934
                0x0000000080040980                L80040980
                0x00000000800409cc                L800409CC
                0x0000000080040a18                L80040A18
                0x0000000080040a64                L80040A64
                0x0000000080040ab0                L80040AB0
                0x0000000080040afc                L80040AFC
                0x0000000080040b48                L80040B48
                0x0000000080040bbc                func_80040BBC
                0x0000000080040dec                func_80040DEC
                0x0000000080041278                func_80041278
                0x000000008004149c                func_8004149C
                0x0000000080041618                func_80041618
                0x000000008004184c                func_8004184C
                0x0000000080041964                func_80041964
                0x00000000800419d0                func_800419D0
                0x0000000080041af4                func_80041AF4
                0x0000000080041d2c                func_80041D2C
 build/asm/43090.s.o(.text)
 .text          0x0000000080042490     0x4050 build/asm/43090.s.o
                0x0000000080042490                func_80042490
                0x0000000080042994                func_80042994
                0x0000000080042e88                func_80042E88
                0x000000008004378c                func_8004378C
                0x0000000080043ac8                func_80043AC8
                0x0000000080043e6c                func_80043E6C
                0x0000000080043f68                L80043F68
                0x0000000080043f84                L80043F84
                0x0000000080043fa0                L80043FA0
                0x0000000080043fbc                L80043FBC
                0x0000000080043fd8                L80043FD8
                0x00000000800440fc                L800440FC
                0x0000000080044118                L80044118
                0x0000000080044134                L80044134
                0x0000000080044150                L80044150
                0x000000008004416c                L8004416C
                0x00000000800441c4                func_800441C4
                0x0000000080044724                func_80044724
                0x0000000080044c84                func_80044C84
                0x0000000080044e4c                func_80044E4C
                0x0000000080045014                func_80045014
                0x0000000080045114                func_80045114
                0x0000000080045884                func_80045884
                0x0000000080045a00                func_80045A00
                0x0000000080045bd4                func_80045BD4
                0x0000000080045d54                func_80045D54
                0x0000000080045e7c                func_80045E7C
 build/asm/470E0.s.o(.text)
 .text          0x00000000800464e0     0x43b0 build/asm/470E0.s.o
                0x00000000800464e0                func_800464E0
                0x0000000080047148                func_80047148
                0x0000000080047518                func_80047518
                0x0000000080047a78                func_80047A78
                0x0000000080047c54                func_80047C54
                0x0000000080047f70                func_80047F70
                0x0000000080048014                func_80048014
                0x00000000800484dc                func_800484DC
                0x00000000800486b0                func_800486B0
                0x000000008004882c                func_8004882C
                0x0000000080048d84                func_80048D84
                0x0000000080048efc                func_80048EFC
                0x0000000080048f78                func_80048F78
                0x00000000800492d4                L800492D4
                0x00000000800493f8                L800493F8
                0x000000008004951c                L8004951C
                0x0000000080049634                L80049634
                0x0000000080049758                L80049758
                0x0000000080049870                L80049870
                0x000000008004998c                func_8004998C
                0x0000000080049ba0                func_80049BA0
                0x0000000080049e34                func_80049E34
                0x000000008004a0e8                func_8004A0E8
                0x000000008004a364                func_8004A364
                0x000000008004a3b4                func_8004A3B4
                0x000000008004a584                func_8004A584
 build/asm/4B490.s.o(.text)
 .text          0x000000008004a890     0x45c0 build/asm/4B490.s.o
                0x000000008004a890                func_8004A890
                0x000000008004ab6c                func_8004AB6C
                0x000000008004acf0                func_8004ACF0
                0x000000008004ae74                func_8004AE74
                0x000000008004b0d4                func_8004B0D4
                0x000000008004b5e8                func_8004B5E8
                0x000000008004b744                func_8004B744
                0x000000008004c20c                func_8004C20C
                0x000000008004c2e4                L8004C2E4
                0x000000008004c540                L8004C540
                0x000000008004c680                L8004C680
                0x000000008004c7bc                L8004C7BC
                0x000000008004ca14                L8004CA14
                0x000000008004cc10                L8004CC10
                0x000000008004ce98                func_8004CE98
                0x000000008004d284                func_8004D284
                0x000000008004d4b4                func_8004D4B4
                0x000000008004d6d4                func_8004D6D4
                0x000000008004d8c8                func_8004D8C8
                0x000000008004dc3c                func_8004DC3C
                0x000000008004ddf0                L8004DDF0
                0x000000008004df00                L8004DF00
                0x000000008004dfbc                L8004DFBC
                0x000000008004e078                L8004E078
                0x000000008004e184                L8004E184
                0x000000008004e278                L8004E278
                0x000000008004e7c4                func_8004E7C4
                0x000000008004ecec                func_8004ECEC
 build/asm/4FA50.s.o(.text)
 .text          0x000000008004ee50     0x4010 build/asm/4FA50.s.o
                0x000000008004ee50                func_8004EE50
                0x000000008004eec0                func_8004EEC0
                0x000000008004f708                func_8004F708
                0x000000008004f9ac                func_8004F9AC
                0x000000008004fafc                func_8004FAFC
                0x000000008004ff24                func_8004FF24
                0x00000000800500b0                func_800500B0
                0x000000008005016c                func_8005016C
                0x0000000080050410                func_80050410
                0x000000008005065c                func_8005065C
                0x0000000080050e8c                func_80050E8C
                0x0000000080050ee4                func_80050EE4
                0x0000000080051220                func_80051220
                0x0000000080051304                func_80051304
                0x0000000080051438                func_80051438
                0x0000000080051720                func_80051720
                0x0000000080051788                func_80051788
                0x0000000080051ccc                func_80051CCC
                0x0000000080051f2c                func_80051F2C
                0x0000000080052294                func_80052294
                0x00000000800525a4                func_800525A4
                0x0000000080052a58                func_80052A58
                0x0000000080052cbc                L80052CBC
                0x0000000080052d00                L80052D00
                0x0000000080052d44                L80052D44
                0x0000000080052d88                L80052D88
                0x0000000080052dcc                L80052DCC
                0x0000000080052e10                L80052E10
 build/asm/53A60.s.o(.text)
 .text          0x0000000080052e60     0x43a0 build/asm/53A60.s.o
                0x0000000080052e60                func_80052E60
                0x0000000080052f84                func_80052F84
                0x0000000080053238                func_80053238
                0x0000000080053318                func_80053318
                0x0000000080053394                func_80053394
                0x0000000080053788                func_80053788
                0x0000000080053b7c                func_80053B7C
                0x0000000080053e7c                func_80053E7C
                0x0000000080054290                func_80054290
                0x00000000800546a4                func_800546A4
                0x0000000080054ab8                func_80054AB8
                0x0000000080054dc8                func_80054DC8
                0x00000000800550d8                func_800550D8
                0x0000000080055338                func_80055338
                0x00000000800555b4                func_800555B4
                0x0000000080055674                func_80055674
                0x0000000080055734                func_80055734
                0x00000000800557f4                func_800557F4
                0x00000000800558fc                func_800558FC
                0x0000000080055a04                func_80055A04
                0x0000000080055b14                func_80055B14
                0x0000000080055b80                func_80055B80
                0x0000000080055de8                func_80055DE8
                0x0000000080055e40                L80055E40
                0x0000000080055e50                L80055E50
                0x0000000080055e60                L80055E60
                0x0000000080055e74                L80055E74
                0x0000000080055e84                L80055E84
                0x0000000080055e94                L80055E94
                0x0000000080055ea4                L80055EA4
                0x0000000080055eb4                L80055EB4
                0x00000000800564b0                func_800564B0
                0x000000008005651c                L8005651C
                0x0000000080056534                L80056534
                0x000000008005654c                L8005654C
                0x0000000080056564                L80056564
                0x0000000080056570                L80056570
                0x000000008005657c                L8005657C
                0x0000000080056588                L80056588
                0x000000008005659c                L8005659C
                0x00000000800569bc                func_800569BC
 build/asm/57E00.s.o(.text)
 .text          0x0000000080057200      0x730 build/asm/57E00.s.o
                0x0000000080057200                func_80057200
                0x0000000080057308                func_80057308
                0x0000000080057330                L80057330
                0x00000000800573d4                L800573D4
                0x0000000080057478                L80057478
                0x0000000080057518                L80057518
                0x00000000800575bc                L800575BC
                0x00000000800577a8                L800577A8
                0x0000000080057844                func_80057844
 build/asm/58530.s.o(.text)
 .text          0x0000000080057930      0x1e0 build/asm/58530.s.o
                0x0000000080057930                func_80057930
                0x0000000080057aa0                func_80057AA0
 build/asm/58710.s.o(.text)
 .text          0x0000000080057b10     0x49b0 build/asm/58710.s.o
                0x0000000080057b10                func_80057B10
                0x0000000080057d94                func_80057D94
                0x0000000080057f78                func_80057F78
                0x0000000080057ff8                func_80057FF8
                0x0000000080058114                func_80058114
                0x0000000080058cdc                func_80058CDC
                0x0000000080059250                func_80059250
                0x0000000080059878                func_80059878
                0x0000000080059ca0                func_80059CA0
                0x0000000080059db0                func_80059DB0
                0x0000000080059ed8                func_80059ED8
                0x000000008005a034                func_8005A034
                0x000000008005a2d4                func_8005A2D4
                0x000000008005a330                L8005A330
                0x000000008005a348                L8005A348
                0x000000008005a3f4                L8005A3F4
                0x000000008005a448                L8005A448
                0x000000008005a4d4                L8005A4D4
                0x000000008005a530                L8005A530
                0x000000008005a57c                L8005A57C
                0x000000008005a5c8                L8005A5C8
                0x000000008005a614                L8005A614
                0x000000008005a660                L8005A660
                0x000000008005a6fc                func_8005A6FC
                0x000000008005a878                func_8005A878
                0x000000008005a92c                func_8005A92C
                0x000000008005a964                func_8005A964
                0x000000008005a980                func_8005A980
                0x000000008005abe4                func_8005ABE4
                0x000000008005ac78                L8005AC78
                0x000000008005aca0                L8005ACA0
                0x000000008005ad18                L8005AD18
                0x000000008005bda0                func_8005BDA0
                0x000000008005c1a0                func_8005C1A0
                0x000000008005c354                func_8005C354
                0x000000008005c410                func_8005C410
 build/asm/5D0C0.s.o(.text)
 .text          0x000000008005c4c0      0x290 build/asm/5D0C0.s.o
                0x000000008005c4c0                func_8005C4C0
 build/asm/5D350.s.o(.text)
 .text          0x000000008005c750     0x2360 build/asm/5D350.s.o
                0x000000008005c750                func_8005C750
                0x000000008005c878                func_8005C878
                0x000000008005c95c                func_8005C95C
                0x000000008005c9e4                func_8005C9E4
                0x000000008005cb50                func_8005CB50
                0x000000008005cc48                func_8005CC48
                0x000000008005cd40                func_8005CD40
                0x000000008005ced4                func_8005CED4
                0x000000008005d04c                func_8005D04C
                0x000000008005d14c                func_8005D14C
                0x000000008005d1b0                func_8005D1B0
                0x000000008005d1d0                func_8005D1D0
                0x000000008005d260                func_8005D260
                0x000000008005d29c                L8005D29C
                0x000000008005d2ac                L8005D2AC
                0x000000008005d2bc                L8005D2BC
                0x000000008005d2cc                L8005D2CC
                0x000000008005d2dc                L8005D2DC
                0x000000008005d2f4                func_8005D2F4
                0x000000008005d480                func_8005D480
                0x000000008005d51c                func_8005D51C
                0x000000008005d64c                func_8005D64C
                0x000000008005d720                func_8005D720
                0x000000008005d7f4                func_8005D7F4
                0x000000008005d960                func_8005D960
                0x000000008005de48                func_8005DE48
                0x000000008005e1dc                func_8005E1DC
                0x000000008005e2a8                func_8005E2A8
                0x000000008005e380                func_8005E380
                0x000000008005e820                func_8005E820
 build/asm/5F6B0.s.o(.text)
 .text          0x000000008005eab0     0x1ec0 build/asm/5F6B0.s.o
                0x000000008005eab0                func_8005EAB0
                0x000000008005eaf0                func_8005EAF0
                0x000000008005f014                func_8005F014
                0x000000008005f790                func_8005F790
                0x000000008005f7fc                func_8005F7FC
                0x000000008005f950                func_8005F950
                0x000000008005fa18                func_8005FA18
                0x000000008005fae0                func_8005FAE0
                0x000000008005fba4                L8005FBA4
                0x000000008005ff54                L8005FF54
                0x0000000080060304                L80060304
                0x00000000800605fc                func_800605FC
                0x0000000080060790                func_80060790
 build/asm/61570.s.o(.text)
 .text          0x0000000080060970     0x1390 build/asm/61570.s.o
                0x0000000080060970                func_80060970
                0x00000000800609b4                func_800609B4
                0x0000000080060a3c                func_80060A3C
                0x0000000080060b64                func_80060B64
                0x0000000080060bc4                L80060BC4
                0x0000000080060bd4                L80060BD4
                0x0000000080060be0                L80060BE0
                0x0000000080060bec                L80060BEC
                0x0000000080060bf8                L80060BF8
                0x0000000080060c04                L80060C04
                0x0000000080060c20                func_80060C20
                0x0000000080060f20                func_80060F20
                0x0000000080060fac                func_80060FAC
                0x0000000080061038                L80061038
                0x00000000800610f8                L800610F8
                0x00000000800613c8                L800613C8
                0x00000000800613f4                L800613F4
                0x000000008006143c                L8006143C
                0x0000000080061468                L80061468
                0x00000000800614a0                L800614A0
                0x00000000800616b8                L800616B8
                0x00000000800616f8                L800616F8
                0x0000000080061730                L80061730
                0x0000000080061768                L80061768
 build/asm/62900.s.o(.text)
 .text          0x0000000080061d00     0x1160 build/asm/62900.s.o
                0x0000000080061d00                func_80061D00
                0x0000000080061e8c                func_80061E8C
                0x0000000080062018                func_80062018
                0x0000000080062114                func_80062114
                0x0000000080062154                func_80062154
                0x0000000080062210                func_80062210
                0x00000000800623e8                func_800623E8
                0x00000000800625c0                func_800625C0
                0x00000000800627e0                func_800627E0
                0x000000008006299c                func_8006299C
 build/asm/63A60.s.o(.text)
 .text          0x0000000080062e60     0x1bb0 build/asm/63A60.s.o
                0x0000000080062e60                func_80062E60
                0x0000000080062fa4                func_80062FA4
                0x0000000080062fd0                func_80062FD0
                0x0000000080063274                func_80063274
                0x000000008006336c                func_8006336C
                0x00000000800634ec                func_800634EC
                0x00000000800636c8                func_800636C8
                0x0000000080063930                func_80063930
                0x0000000080063990                func_80063990
                0x0000000080063b78                func_80063B78
                0x0000000080063c54                func_80063C54
                0x0000000080063cfc                func_80063CFC
                0x0000000080063d64                func_80063D64
                0x0000000080063dcc                func_80063DCC
                0x0000000080063f50                func_80063F50
                0x000000008006410c                func_8006410C
                0x00000000800643e4                func_800643E4
                0x0000000080064660                func_80064660
                0x0000000080064940                func_80064940
 build/asm/65610.s.o(.text)
 .text          0x0000000080064a10      0x9e0 build/asm/65610.s.o
                0x0000000080064a10                func_80064A10
                0x0000000080064b3c                func_80064B3C
                0x0000000080064b8c                func_80064B8C
                0x0000000080064c14                func_80064C14
                0x0000000080064c1c                func_80064C1C
                0x0000000080064d40                func_80064D40
                0x0000000080064e60                func_80064E60
                0x0000000080064f54                func_80064F54
                0x0000000080064fdc                func_80064FDC
                0x000000008006502c                func_8006502C
                0x00000000800650d8                func_800650D8
                0x0000000080065140                func_80065140
                0x0000000080065204                func_80065204
                0x0000000080065240                func_80065240
                0x00000000800652f8                L800652F8
                0x0000000080065378                L80065378
                0x00000000800653cc                L800653CC
 build/asm/65FF0.s.o(.text)
 .text          0x00000000800653f0      0x240 build/asm/65FF0.s.o
                0x00000000800653f0                func_800653F0
                0x0000000080065454                func_80065454
                0x00000000800654c0                func_800654C0
                0x00000000800655d8                L800655D8
                0x00000000800655e0                L800655E0
                0x00000000800655e8                L800655E8
                0x00000000800655f0                L800655F0
                0x00000000800655f8                L800655F8
                0x0000000080065600                L80065600
                0x0000000080065604                L80065604
 build/asm/66230.s.o(.text)
 .text          0x0000000080065630      0x110 build/asm/66230.s.o
                0x0000000080065630                func_80065630
                0x0000000080065690                func_80065690
                0x0000000080065704                func_80065704
 build/asm/66340.s.o(.text)
 .text          0x0000000080065740      0x400 build/asm/66340.s.o
                0x0000000080065740                func_80065740
                0x000000008006578c                func_8006578C
                0x00000000800657b0                func_800657B0
                0x0000000080065884                func_80065884
                0x00000000800658fc                func_800658FC
                0x0000000080065ad0                func_80065AD0
                0x0000000080065b00                func_80065B00
 build/asm/66740.s.o(.text)
 .text          0x0000000080065b40       0x60 build/asm/66740.s.o
                0x0000000080065b40                func_80065B40
 build/asm/667A0.s.o(.text)
 .text          0x0000000080065ba0      0x250 build/asm/667A0.s.o
                0x0000000080065ba0                func_80065BA0
                0x0000000080065ba8                func_80065BA8
                0x0000000080065bb0                func_80065BB0
                0x0000000080065c9c                func_80065C9C
                0x0000000080065ca4                func_80065CA4
                0x0000000080065da8                func_80065DA8
 build/asm/669F0.s.o(.text)
 .text          0x0000000080065df0       0x40 build/asm/669F0.s.o
                0x0000000080065df0                func_80065DF0
 build/asm/66A30.s.o(.text)
 .text          0x0000000080065e30       0x30 build/asm/66A30.s.o
                0x0000000080065e30                func_80065E30
 build/asm/66A60.s.o(.text)
 .text          0x0000000080065e60       0xb0 build/asm/66A60.s.o
                0x0000000080065e60                func_80065E60
 build/asm/66B10.s.o(.text)
 .text          0x0000000080065f10      0x110 build/asm/66B10.s.o
                0x0000000080065f10                func_80065F10
 build/asm/66C20.s.o(.text)
 .text          0x0000000080066020       0x40 build/asm/66C20.s.o
                0x0000000080066020                func_80066020
 build/asm/66C60.s.o(.text)
 .text          0x0000000080066060      0x170 build/asm/66C60.s.o
                0x0000000080066060                func_80066060
                0x0000000080066090                func_80066090
 build/asm/66DD0.s.o(.text)
 .text          0x00000000800661d0      0xac0 build/asm/66DD0.s.o
                0x00000000800661d0                func_800661D0
                0x0000000080066270                func_80066270
                0x0000000080066310                func_80066310
                0x00000000800663d4                func_800663D4
                0x000000008006642c                func_8006642C
                0x0000000080066434                func_80066434
                0x000000008006672c                func_8006672C
                0x0000000080066840                func_80066840
                0x00000000800669ac                func_800669AC
                0x00000000800669b4                func_800669B4
                0x0000000080066ab0                func_80066AB0
                0x0000000080066b1c                func_80066B1C
 build/asm/67890.s.o(.text)
 .text          0x0000000080066c90       0x40 build/asm/67890.s.o
                0x0000000080066c90                func_80066C90
 build/asm/678D0.s.o(.text)
 .text          0x0000000080066cd0      0x950 build/asm/678D0.s.o
                0x0000000080066cd0                func_80066CD0
                0x0000000080066d00                func_80066D00
                0x0000000080066d50                func_80066D50
                0x0000000080066f10                func_80066F10
                0x0000000080066f8c                func_80066F8C
                0x0000000080066f94                func_80066F94
                0x0000000080066f9c                func_80066F9C
                0x0000000080067038                L80067038
                0x00000000800671a0                L800671A0
                0x000000008006726c                L8006726C
                0x00000000800672d4                L800672D4
                0x0000000080067328                L80067328
                0x0000000080067350                L80067350
                0x00000000800673b4                L800673B4
                0x0000000080067460                L80067460
                0x0000000080067490                L80067490
                0x00000000800674e4                func_800674E4
 build/asm/68220.s.o(.text)
 .text          0x0000000080067620       0xa0 build/asm/68220.s.o
                0x0000000080067620                func_80067620
 build/asm/682C0.s.o(.text)
 .text          0x00000000800676c0       0x20 build/asm/682C0.s.o
                0x00000000800676c0                func_800676C0
 build/asm/682E0.s.o(.text)
 .text          0x00000000800676e0       0x60 build/asm/682E0.s.o
                0x00000000800676e0                func_800676E0
 build/asm/68340.s.o(.text)
 .text          0x0000000080067740       0x60 build/asm/68340.s.o
                0x0000000080067740                func_80067740
 build/asm/683A0.s.o(.text)
 .text          0x00000000800677a0       0x60 build/asm/683A0.s.o
                0x00000000800677a0                func_800677A0
 build/asm/68400.s.o(.text)
 .text          0x0000000080067800       0x60 build/asm/68400.s.o
                0x0000000080067800                func_80067800
 build/asm/68460.s.o(.text)
 .text          0x0000000080067860       0x50 build/asm/68460.s.o
                0x0000000080067860                func_80067860
 build/asm/684B0.s.o(.text)
 .text          0x00000000800678b0       0xe0 build/asm/684B0.s.o
                0x00000000800678b0                func_800678B0
                0x00000000800678d0                func_800678D0
                0x0000000080067920                func_80067920
 build/src/code_68590.c.o(.text)
 .text          0x0000000080067990      0x370 build/src/code_68590.c.o
                0x0000000080067990                func_80067990
                0x0000000080067af0                func_80067AF0
                0x0000000080067b20                func_80067B20
                0x0000000080067b44                func_80067B44
                0x0000000080067b7c                func_80067B7C
                0x0000000080067bb0                osCreateThread
 build/asm/68900.s.o(.text)
 .text          0x0000000080067d00      0x180 build/asm/68900.s.o
                0x0000000080067d00                func_80067D00
                0x0000000080067e50                func_80067E50
 build/asm/68A80.s.o(.text)
 .text          0x0000000080067e80       0x30 build/asm/68A80.s.o
                0x0000000080067e80                func_80067E80
 build/asm/68AB0.s.o(.text)
 .text          0x0000000080067eb0       0x80 build/asm/68AB0.s.o
                0x0000000080067eb0                func_80067EB0
 build/asm/68B30.s.o(.text)
 .text          0x0000000080067f30       0xb0 build/asm/68B30.s.o
                0x0000000080067f30                func_80067F30
 build/asm/68BE0.s.o(.text)
 .text          0x0000000080067fe0       0x10 build/asm/68BE0.s.o
                0x0000000080067fe0                func_80067FE0
 build/asm/68BF0.s.o(.text)
 .text          0x0000000080067ff0      0x830 build/asm/68BF0.s.o
                0x0000000080067ff0                func_80067FF0
                0x0000000080067ff8                func_80067FF8
                0x0000000080068050                func_80068050
                0x0000000080068088                func_80068088
                0x00000000800680e8                func_800680E8
                0x0000000080068100                func_80068100
                0x0000000080068130                func_80068130
                0x0000000080068138                func_80068138
                0x00000000800683d0                func_800683D0
                0x00000000800686d0                func_800686D0
 build/asm/69420.s.o(.text)
 .text          0x0000000080068820     0x1940 build/asm/69420.s.o
                0x0000000080068820                func_80068820
                0x0000000080068874                func_80068874
                0x00000000800688f4                func_800688F4
                0x00000000800689a8                func_800689A8
                0x00000000800689b0                func_800689B0
                0x00000000800689d4                func_800689D4
                0x0000000080068a5c                func_80068A5C
                0x0000000080068b88                func_80068B88
                0x0000000080068c30                func_80068C30
                0x0000000080068ca0                func_80068CA0
                0x0000000080068d7c                func_80068D7C
                0x0000000080068df4                func_80068DF4
                0x0000000080068e3c                func_80068E3C
                0x0000000080068eb0                func_80068EB0
                0x0000000080068f20                func_80068F20
                0x000000008006901c                func_8006901C
                0x0000000080069060                L80069060
                0x00000000800693b4                L800693B4
                0x000000008006940c                L8006940C
                0x0000000080069474                L80069474
                0x00000000800694ec                L800694EC
                0x0000000080069554                L80069554
                0x00000000800695b0                L800695B0
                0x0000000080069644                L80069644
                0x0000000080069758                L80069758
                0x000000008006978c                L8006978C
                0x0000000080069824                L80069824
                0x0000000080069834                func_80069834
                0x000000008006983c                func_8006983C
                0x00000000800698a0                L800698A0
                0x000000008006994c                L8006994C
                0x000000008006996c                L8006996C
                0x00000000800699b8                L800699B8
                0x0000000080069a1c                L80069A1C
                0x0000000080069b2c                L80069B2C
                0x0000000080069bb4                L80069BB4
                0x0000000080069bd4                L80069BD4
                0x0000000080069be8                L80069BE8
                0x0000000080069c0c                L80069C0C
                0x0000000080069c7c                L80069C7C
                0x0000000080069d0c                L80069D0C
                0x0000000080069d74                L80069D74
                0x0000000080069d90                L80069D90
                0x0000000080069dac                L80069DAC
                0x0000000080069dfc                L80069DFC
                0x0000000080069e0c                L80069E0C
                0x0000000080069e60                func_80069E60
                0x0000000080069f64                func_80069F64
                0x0000000080069fd4                func_80069FD4
 build/asm/6AD60.s.o(.text)
 .text          0x000000008006a160      0x410 build/asm/6AD60.s.o
                0x000000008006a160                func_8006A160
                0x000000008006a20c                func_8006A20C
                0x000000008006a27c                func_8006A27C
                0x000000008006a3a0                func_8006A3A0
                0x000000008006a42c                func_8006A42C
                0x000000008006a4a0                func_8006A4A0
                0x000000008006a4f0                func_8006A4F0
 build/asm/6B170.s.o(.text)
 .text          0x000000008006a570      0x150 build/asm/6B170.s.o
                0x000000008006a570                func_8006A570
                0x000000008006a620                func_8006A620
 build/asm/6B2C0.s.o(.text)
 .text          0x000000008006a6c0       0x90 build/asm/6B2C0.s.o
                0x000000008006a6c0                func_8006A6C0
 build/asm/6B350.s.o(.text)
 .text          0x000000008006a750      0x230 build/asm/6B350.s.o
                0x000000008006a750                func_8006A750
                0x000000008006a838                func_8006A838
 build/asm/6B580.s.o(.text)
 .text          0x000000008006a980       0xf0 build/asm/6B580.s.o
                0x000000008006a980                func_8006A980
 build/asm/6B670.s.o(.text)
 .text          0x000000008006aa70       0xa0 build/asm/6B670.s.o
                0x000000008006aa70                func_8006AA70
 build/asm/6B710.s.o(.text)
 .text          0x000000008006ab10      0x140 build/asm/6B710.s.o
                0x000000008006ab10                func_8006AB10
                0x000000008006abb0                func_8006ABB0
                0x000000008006ac04                func_8006AC04
 build/asm/6B850.s.o(.text)
 .text          0x000000008006ac50      0x1a0 build/asm/6B850.s.o
                0x000000008006ac50                func_8006AC50
                0x000000008006ac80                func_8006AC80
 build/asm/6B9F0.s.o(.text)
 .text          0x000000008006adf0    0x11240 build/asm/6B9F0.s.o
                0x000000008006adf0                func_8006ADF0
                0x000000008006ae00                func_8006AE00
                0x000000008006ae70                func_8006AE70
                0x000000008006aee0                func_8006AEE0
                0x000000008006b050                func_8006B050
                0x000000008006b120                func_8006B120
                0x000000008006b220                func_8006B220
                0x000000008006b2ac                func_8006B2AC
                0x000000008006b354                func_8006B354
                0x000000008006b440                func_8006B440
                0x000000008006b6e0                func_8006B6E0
                0x000000008006b750                func_8006B750
                0x000000008006b798                func_8006B798
                0x000000008006b7f0                func_8006B7F0
                0x000000008006b984                func_8006B984
                0x000000008006b9e0                func_8006B9E0
                0x000000008006ba04                func_8006BA04
                0x000000008006ba60                func_8006BA60
                0x000000008006bc90                func_8006BC90
                0x000000008006bcf0                func_8006BCF0
                0x000000008006bfa8                func_8006BFA8
                0x000000008006c020                func_8006C020
                0x000000008006c0c0                func_8006C0C0
                0x000000008006c230                func_8006C230
                0x000000008006c330                func_8006C330
                0x000000008006c3b8                func_8006C3B8
                0x000000008006c3e8                func_8006C3E8
                0x000000008006c4a0                func_8006C4A0
                0x000000008006c540                func_8006C540
                0x000000008006c56c                func_8006C56C
                0x000000008006c5a8                func_8006C5A8
                0x000000008006c5e4                func_8006C5E4
                0x000000008006c610                func_8006C610
                0x000000008006c64c                func_8006C64C
                0x000000008006c6a8                func_8006C6A8
                0x000000008006c6d8                func_8006C6D8
                0x000000008006c738                func_8006C738
                0x000000008006c7d4                func_8006C7D4
                0x000000008006c800                func_8006C800
                0x000000008006c890                func_8006C890
                0x000000008006c8ac                func_8006C8AC
                0x000000008006c8c8                func_8006C8C8
                0x000000008006c968                func_8006C968
                0x000000008006ca04                func_8006CA04
                0x000000008006ca1c                func_8006CA1C
                0x000000008006ca34                func_8006CA34
                0x000000008006ca68                func_8006CA68
                0x000000008006caa0                func_8006CAA0
                0x000000008006cc60                func_8006CC60
                0x000000008006ccd0                func_8006CCD0
                0x000000008006cd00                func_8006CD00
                0x000000008006cd1c                func_8006CD1C
                0x000000008006cd40                func_8006CD40
                0x000000008006cd6c                func_8006CD6C
                0x000000008006cd94                func_8006CD94
                0x000000008006cde0                func_8006CDE0
                0x000000008006cfa0                func_8006CFA0
                0x000000008006d0f0                func_8006D0F0
                0x000000008006d240                func_8006D240
                0x000000008006d2d0                func_8006D2D0
                0x000000008006d5c0                func_8006D5C0
                0x000000008006d820                func_8006D820
                0x000000008006db00                func_8006DB00
                0x000000008006dd48                func_8006DD48
                0x000000008006de40                func_8006DE40
                0x000000008006dee0                func_8006DEE0
                0x000000008006e0fc                func_8006E0FC
                0x000000008006e200                func_8006E200
                0x000000008006e2f0                func_8006E2F0
                0x000000008006e380                func_8006E380
                0x000000008006e520                func_8006E520
                0x000000008006e6c0                func_8006E6C0
                0x000000008006e83c                func_8006E83C
                0x000000008006eb20                func_8006EB20
                0x000000008006ec1c                func_8006EC1C
                0x000000008006f040                func_8006F040
                0x000000008006f4c4                func_8006F4C4
                0x000000008006f728                func_8006F728
                0x000000008006f7f0                func_8006F7F0
                0x000000008006f980                func_8006F980
                0x000000008006fb50                func_8006FB50
                0x000000008006fbc0                func_8006FBC0
                0x000000008006fc30                func_8006FC30
                0x000000008006fcb0                func_8006FCB0
                0x000000008006fcf0                func_8006FCF0
                0x000000008006fd30                func_8006FD30
                0x000000008006fe80                func_8006FE80
                0x000000008006fed0                func_8006FED0
                0x000000008006ffec                func_8006FFEC
                0x000000008007017c                func_8007017C
                0x00000000800701c0                func_800701C0
                0x0000000080070270                func_80070270
                0x0000000080070290                func_80070290
                0x0000000080070520                func_80070520
                0x0000000080070600                func_80070600
                0x00000000800707f0                func_800707F0
                0x0000000080070830                func_80070830
                0x0000000080070860                func_80070860
                0x0000000080070880                __osRestoreInt
                0x00000000800708a0                func_800708A0
                0x0000000080070ae8                L80070AE8
                0x0000000080070af4                L80070AF4
                0x0000000080070b00                L80070B00
                0x0000000080070b20                L80070B20
                0x0000000080070b74                L80070B74
                0x0000000080070cb4                L80070CB4
                0x0000000080070d10                L80070D10
                0x0000000080070d30                L80070D30
                0x0000000080070d68                L80070D68
                0x0000000080070de4                func_80070DE4
                0x0000000080070ecc                func_80070ECC
                0x0000000080070fcc                func_80070FCC
                0x0000000080071014                func_80071014
                0x0000000080071024                func_80071024
                0x00000000800711a0                __osCleanupThread
                0x00000000800711b0                func_800711B0
                0x0000000080071240                func_80071240
                0x0000000080071250                func_80071250
                0x00000000800712f0                func_800712F0
                0x00000000800713b0                func_800713B0
                0x00000000800713e0                func_800713E0
                0x0000000080071424                func_80071424
                0x0000000080071478                func_80071478
                0x00000000800714cc                func_800714CC
                0x0000000080071554                func_80071554
                0x00000000800715fc                func_800715FC
                0x00000000800716a0                func_800716A0
                0x0000000080071740                func_80071740
                0x00000000800717e8                L800717E8
                0x00000000800717f4                L800717F4
                0x0000000080071800                L80071800
                0x000000008007180c                L8007180C
                0x0000000080071818                L80071818
                0x0000000080071824                L80071824
                0x0000000080071b80                func_80071B80
                0x0000000080071c20                func_80071C20
                0x0000000080071c50                func_80071C50
                0x0000000080071d70                func_80071D70
                0x0000000080071f44                func_80071F44
                0x00000000800722f0                func_800722F0
                0x000000008007241c                func_8007241C
                0x00000000800728c0                func_800728C0
                0x00000000800728f0                L800728F0
                0x00000000800728f8                L800728F8
                0x0000000080072934                L80072934
                0x0000000080072964                L80072964
                0x0000000080072974                L80072974
                0x0000000080072980                L80072980
                0x00000000800729ac                func_800729AC
                0x0000000080072bc0                func_80072BC0
                0x0000000080072be8                func_80072BE8
                0x0000000080072cd4                func_80072CD4
                0x0000000080072db4                func_80072DB4
                0x0000000080072f84                func_80072F84
                0x000000008007321c                func_8007321C
                0x00000000800732cc                func_800732CC
                0x0000000080073380                L80073380
                0x00000000800734c0                L800734C0
                0x0000000080073664                L80073664
                0x00000000800736b8                L800736B8
                0x00000000800736f8                L800736F8
                0x0000000080073718                L80073718
                0x0000000080073820                func_80073820
                0x0000000080073850                func_80073850
                0x0000000080073930                func_80073930
                0x0000000080073964                func_80073964
                0x00000000800739f0                func_800739F0
                0x0000000080073a0c                func_80073A0C
                0x0000000080073a28                func_80073A28
                0x0000000080073a30                func_80073A30
                0x0000000080073a38                func_80073A38
                0x0000000080073a84                func_80073A84
                0x0000000080073c08                func_80073C08
                0x0000000080073d28                func_80073D28
                0x0000000080073e0c                func_80073E0C
                0x0000000080073e60                func_80073E60
                0x0000000080073eb8                func_80073EB8
                0x0000000080073f08                func_80073F08
                0x0000000080073f38                func_80073F38
                0x0000000080074010                func_80074010
                0x0000000080074020                func_80074020
                0x00000000800740a0                func_800740A0
                0x00000000800740f0                func_800740F0
                0x0000000080074134                func_80074134
                0x0000000080074160                func_80074160
                0x0000000080074240                func_80074240
                0x00000000800742f0                func_800742F0
                0x00000000800743d4                func_800743D4
                0x0000000080074494                func_80074494
                0x0000000080074530                func_80074530
                0x000000008007458c                func_8007458C
                0x00000000800745f4                func_800745F4
                0x0000000080074a0c                func_80074A0C
                0x0000000080074ba4                func_80074BA4
                0x0000000080074e00                func_80074E00
                0x0000000080074efc                func_80074EFC
                0x000000008007521c                func_8007521C
                0x0000000080075290                func_80075290
                0x00000000800754ac                func_800754AC
                0x00000000800755f0                func_800755F0
                0x0000000080075cb4                func_80075CB4
                0x0000000080075e68                func_80075E68
                0x0000000080076050                func_80076050
                0x00000000800760c0                L800760C0
                0x00000000800760f8                L800760F8
                0x0000000080076268                L80076268
                0x00000000800763b8                L800763B8
                0x000000008007651c                L8007651C
                0x00000000800765ec                L800765EC
                0x0000000080076634                L80076634
                0x0000000080076698                L80076698
                0x00000000800766c0                _Printf
                0x0000000080076d10                func_80076D10
                0x0000000080076d20                func_80076D20
                0x0000000080076dac                __osTimerInterrupt
                0x0000000080076f24                __osSetTimerIntr
                0x0000000080076f98                __osInsertTimer
                0x0000000080077120                __osViInit
                0x0000000080077260                __osContRamWrite
                0x0000000080077464                func_80077464
                0x00000000800775c0                osEepromWrite
                0x00000000800777ac                func_800777AC
                0x00000000800778b8                __osEepStatus
                0x0000000080077ae0                osPfsIsPlug
                0x0000000080077c80                __osPfsRequestData
                0x0000000080077d50                func_80077D50
                0x0000000080077e20                __osContAddressCrc
                0x0000000080077ed0                __osContDataCrc
                0x0000000080077fa0                osGetThreadPri
                0x0000000080077fc0                func_80077FC0
                0x0000000080077fd0                func_80077FD0
                0x0000000080078350                func_80078350
                0x0000000080078360                func_80078360
                0x0000000080078670                func_80078670
                0x00000000800786f0                func_800786F0
                0x0000000080078700                func_80078700
                0x0000000080078740                __osSpRawStartDma
                0x00000000800787d0                func_800787D0
                0x0000000080078800                func_80078800
                0x0000000080078830                func_80078830
                0x0000000080078840                __osGetSR
                0x0000000080078850                func_80078850
                0x0000000080078860                __osSpRawReadIo
                0x00000000800788b0                __osSpRawWriteIo
                0x0000000080078900                func_80078900
                0x0000000080078980                func_80078980
                0x00000000800789e0                func_800789E0
                0x0000000080078a40                func_80078A40
                0x0000000080078b40                func_80078B40
                0x0000000080078c40                func_80078C40
                0x0000000080078c90                func_80078C90
                0x0000000080078cd4                func_80078CD4
                0x0000000080078d00                osPiRawStartDma
                0x0000000080078de0                osEPiRawStartDma
                0x0000000080079010                __osDevMgrMain
                0x0000000080079304                L80079304
                0x0000000080079340                L80079340
                0x000000008007937c                L8007937C
                0x00000000800793c4                L800793C4
                0x000000008007940c                L8007940C
                0x000000008007942c                L8007942C
                0x00000000800794a0                __osLeoInterrupt
                0x0000000080079b44                func_80079B44
                0x0000000080079c2c                func_80079C2C
                0x0000000080079d20                osDestroyThread
                0x0000000080079e30                func_80079E30
                0x0000000080079e50                func_80079E50
                0x0000000080079ef8                _filterBuffer
                0x0000000080079fb0                _saveBuffer
                0x000000008007a138                _loadBuffer
                0x000000008007a2c4                _loadOutputBuffer
                0x000000008007a4e8                alFxParamHdl
                0x000000008007a520                L8007A520
                0x000000008007a554                L8007A554
                0x000000008007a588                L8007A588
                0x000000008007a5b4                L8007A5B4
                0x000000008007a5e0                L8007A5E0
                0x000000008007a60c                L8007A60C
                0x000000008007a674                L8007A674
                0x000000008007a6ec                L8007A6EC
                0x000000008007a744                alFxParam
                0x000000008007a75c                alFxPull
                0x000000008007aaa0                func_8007AAA0
                0x000000008007aad0                _Litob
                0x000000008007ad70                func_8007AD70
                0x000000008007b2d8                func_8007B2D8
                0x000000008007b2e0                _Ldtob
                0x000000008007b830                func_8007B830
                0x000000008007b840                func_8007B840
                0x000000008007b8a0                func_8007B8A0
                0x000000008007ba30                func_8007BA30
                0x000000008007bbd0                __osSetGlobalIntMask
                0x000000008007bc20                osYieldThread
                0x000000008007bc70                lldiv
                0x000000008007bd70                ldiv
                0x000000008007be00                func_8007BE00
                0x000000008007be08                func_8007BE08
                0x000000008007bed0                func_8007BED0
                0x000000008007bed8                func_8007BED8
                0x000000008007bf18                func_8007BF18
                0x000000008007bf34                func_8007BF34
                0x000000008007bf70                func_8007BF70
                0x000000008007c02c                func_8007C02C
                0x000000008007c030                main_TEXT_END = .
                0x000000000007bc30                main_TEXT_SIZE = ABSOLUTE ((main_TEXT_END - main_TEXT_START))
                0x000000008007c030                main_DATA_START = .
                0x000000008007c030                _1000_s = .
 build/asm/1000.s.o(.data)
 .data          0x000000008007c030        0x0 build/asm/1000.s.o
                0x000000008007c030                _11C0_s = .
 build/asm/11C0.s.o(.data)
 .data          0x000000008007c030        0x0 build/asm/11C0.s.o
                0x000000008007c030                _1FC0_s = .
 build/asm/1FC0.s.o(.data)
 .data          0x000000008007c030        0x0 build/asm/1FC0.s.o
                0x000000008007c030                _2360_s = .
 build/asm/2360.s.o(.data)
 .data          0x000000008007c030        0x0 build/asm/2360.s.o
                0x000000008007c030                _2D80_s = .
 build/asm/2D80.s.o(.data)
 .data          0x000000008007c030        0x0 build/asm/2D80.s.o
                0x000000008007c030                _5850_s = .
 build/asm/5850.s.o(.data)
 .data          0x000000008007c030        0x0 build/asm/5850.s.o
                0x000000008007c030                _6BE0_s = .
 build/asm/6BE0.s.o(.data)
 .data          0x000000008007c030        0x0 build/asm/6BE0.s.o
                0x000000008007c030                _6C90_s = .
 build/asm/6C90.s.o(.data)
 .data          0x000000008007c030        0x0 build/asm/6C90.s.o
                0x000000008007c030                _6EA0_s = .
 build/asm/6EA0.s.o(.data)
 .data          0x000000008007c030        0x0 build/asm/6EA0.s.o
                0x000000008007c030                _9D50_s = .
 build/asm/9D50.s.o(.data)
 .data          0x000000008007c030        0x0 build/asm/9D50.s.o
                0x000000008007c030                A160_s = .
 build/asm/A160.s.o(.data)
 .data          0x000000008007c030        0x0 build/asm/A160.s.o
                0x000000008007c030                A220_s = .
 build/asm/A220.s.o(.data)
 .data          0x000000008007c030        0x0 build/asm/A220.s.o
                0x000000008007c030                A910_s = .
 build/asm/A910.s.o(.data)
 .data          0x000000008007c030        0x0 build/asm/A910.s.o
                0x000000008007c030                DA40_s = .
 build/asm/DA40.s.o(.data)
 .data          0x000000008007c030        0x0 build/asm/DA40.s.o
                0x000000008007c030                E270_s = .
 build/asm/E270.s.o(.data)
 .data          0x000000008007c030        0x0 build/asm/E270.s.o
                0x000000008007c030                EBD0_s = .
 build/asm/EBD0.s.o(.data)
 .data          0x000000008007c030        0x0 build/asm/EBD0.s.o
                0x000000008007c030                EC90_s = .
 build/asm/EC90.s.o(.data)
 .data          0x000000008007c030        0x0 build/asm/EC90.s.o
                0x000000008007c030                _10520_s = .
 build/asm/10520.s.o(.data)
 .data          0x000000008007c030        0x0 build/asm/10520.s.o
                0x000000008007c030                _10640_s = .
 build/asm/10640.s.o(.data)
 .data          0x000000008007c030        0x0 build/asm/10640.s.o
                0x000000008007c030                _108F0_s = .
 build/asm/108F0.s.o(.data)
 .data          0x000000008007c030        0x0 build/asm/108F0.s.o
                0x000000008007c030                _10D60_s = .
 build/asm/10D60.s.o(.data)
 .data          0x000000008007c030        0x0 build/asm/10D60.s.o
                0x000000008007c030                _12760_s = .
 build/asm/12760.s.o(.data)
 .data          0x000000008007c030        0x0 build/asm/12760.s.o
                0x000000008007c030                _14060_s = .
 build/asm/14060.s.o(.data)
 .data          0x000000008007c030        0x0 build/asm/14060.s.o
                0x000000008007c030                _14720_s = .
 build/asm/14720.s.o(.data)
 .data          0x000000008007c030        0x0 build/asm/14720.s.o
                0x000000008007c030                _15020_s = .
 build/asm/15020.s.o(.data)
 .data          0x000000008007c030        0x0 build/asm/15020.s.o
                0x000000008007c030                _15D60_s = .
 build/asm/15D60.s.o(.data)
 .data          0x000000008007c030        0x0 build/asm/15D60.s.o
                0x000000008007c030                _16840_s = .
 build/asm/16840.s.o(.data)
 .data          0x000000008007c030        0x0 build/asm/16840.s.o
                0x000000008007c030                _16BD0_s = .
 build/asm/16BD0.s.o(.data)
 .data          0x000000008007c030        0x0 build/asm/16BD0.s.o
                0x000000008007c030                _198F0_s = .
 build/asm/198F0.s.o(.data)
 .data          0x000000008007c030        0x0 build/asm/198F0.s.o
                0x000000008007c030                _19A90_s = .
 build/asm/19A90.s.o(.data)
 .data          0x000000008007c030        0x0 build/asm/19A90.s.o
                0x000000008007c030                _19AA0_s = .
 build/asm/19AA0.s.o(.data)
 .data          0x000000008007c030        0x0 build/asm/19AA0.s.o
                0x000000008007c030                code_1A230_c = .
 build/src/code_1A230.c.o(.data)
                0x000000008007c030                _1CA50_s = .
 build/asm/1CA50.s.o(.data)
 .data          0x000000008007c030        0x0 build/asm/1CA50.s.o
                0x000000008007c030                _1CC30_s = .
 build/asm/1CC30.s.o(.data)
 .data          0x000000008007c030        0x0 build/asm/1CC30.s.o
                0x000000008007c030                _1EDC0_s = .
 build/asm/1EDC0.s.o(.data)
 .data          0x000000008007c030        0x0 build/asm/1EDC0.s.o
                0x000000008007c030                _1F0E0_s = .
 build/asm/1F0E0.s.o(.data)
 .data          0x000000008007c030        0x0 build/asm/1F0E0.s.o
                0x000000008007c030                _1FD50_s = .
 build/asm/1FD50.s.o(.data)
 .data          0x000000008007c030        0x0 build/asm/1FD50.s.o
                0x000000008007c030                _202A0_s = .
 build/asm/202A0.s.o(.data)
 .data          0x000000008007c030        0x0 build/asm/202A0.s.o
                0x000000008007c030                _20D90_s = .
 build/asm/20D90.s.o(.data)
 .data          0x000000008007c030        0x0 build/asm/20D90.s.o
                0x000000008007c030                _22680_s = .
 build/asm/22680.s.o(.data)
 .data          0x000000008007c030        0x0 build/asm/22680.s.o
                0x000000008007c030                _22EC0_s = .
 build/asm/22EC0.s.o(.data)
 .data          0x000000008007c030        0x0 build/asm/22EC0.s.o
                0x000000008007c030                _24530_s = .
 build/asm/24530.s.o(.data)
 .data          0x000000008007c030        0x0 build/asm/24530.s.o
                0x000000008007c030                _24890_s = .
 build/asm/24890.s.o(.data)
 .data          0x000000008007c030        0x0 build/asm/24890.s.o
                0x000000008007c030                _24B70_s = .
 build/asm/24B70.s.o(.data)
 .data          0x000000008007c030        0x0 build/asm/24B70.s.o
                0x000000008007c030                _24CC0_s = .
 build/asm/24CC0.s.o(.data)
 .data          0x000000008007c030        0x0 build/asm/24CC0.s.o
                0x000000008007c030                _24D00_s = .
 build/asm/24D00.s.o(.data)
 .data          0x000000008007c030        0x0 build/asm/24D00.s.o
                0x000000008007c030                _24DF0_s = .
 build/asm/24DF0.s.o(.data)
 .data          0x000000008007c030        0x0 build/asm/24DF0.s.o
                0x000000008007c030                _24E40_s = .
 build/asm/24E40.s.o(.data)
 .data          0x000000008007c030        0x0 build/asm/24E40.s.o
                0x000000008007c030                _24EE0_s = .
 build/asm/24EE0.s.o(.data)
 .data          0x000000008007c030        0x0 build/asm/24EE0.s.o
                0x000000008007c030                _25440_s = .
 build/asm/25440.s.o(.data)
 .data          0x000000008007c030        0x0 build/asm/25440.s.o
                0x000000008007c030                _255D0_s = .
 build/asm/255D0.s.o(.data)
 .data          0x000000008007c030        0x0 build/asm/255D0.s.o
                0x000000008007c030                _25760_s = .
 build/asm/25760.s.o(.data)
 .data          0x000000008007c030        0x0 build/asm/25760.s.o
                0x000000008007c030                _25A60_s = .
 build/asm/25A60.s.o(.data)
 .data          0x000000008007c030        0x0 build/asm/25A60.s.o
                0x000000008007c030                _25BE0_s = .
 build/asm/25BE0.s.o(.data)
 .data          0x000000008007c030        0x0 build/asm/25BE0.s.o
                0x000000008007c030                _25D70_s = .
 build/asm/25D70.s.o(.data)
 .data          0x000000008007c030        0x0 build/asm/25D70.s.o
                0x000000008007c030                _25F20_s = .
 build/asm/25F20.s.o(.data)
 .data          0x000000008007c030        0x0 build/asm/25F20.s.o
                0x000000008007c030                _25FC0_s = .
 build/asm/25FC0.s.o(.data)
 .data          0x000000008007c030        0x0 build/asm/25FC0.s.o
                0x000000008007c030                _26440_s = .
 build/asm/26440.s.o(.data)
 .data          0x000000008007c030        0x0 build/asm/26440.s.o
                0x000000008007c030                _26520_s = .
 build/asm/26520.s.o(.data)
 .data          0x000000008007c030        0x0 build/asm/26520.s.o
                0x000000008007c030                _265C0_s = .
 build/asm/265C0.s.o(.data)
 .data          0x000000008007c030        0x0 build/asm/265C0.s.o
                0x000000008007c030                _26610_s = .
 build/asm/26610.s.o(.data)
 .data          0x000000008007c030        0x0 build/asm/26610.s.o
                0x000000008007c030                _28470_s = .
 build/asm/28470.s.o(.data)
 .data          0x000000008007c030        0x0 build/asm/28470.s.o
                0x000000008007c030                _2E0B0_s = .
 build/asm/2E0B0.s.o(.data)
 .data          0x000000008007c030        0x0 build/asm/2E0B0.s.o
                0x000000008007c030                _2F1E0_s = .
 build/asm/2F1E0.s.o(.data)
 .data          0x000000008007c030        0x0 build/asm/2F1E0.s.o
                0x000000008007c030                _337B0_s = .
 build/asm/337B0.s.o(.data)
 .data          0x000000008007c030        0x0 build/asm/337B0.s.o
                0x000000008007c030                _37B40_s = .
 build/asm/37B40.s.o(.data)
 .data          0x000000008007c030        0x0 build/asm/37B40.s.o
                0x000000008007c030                _3AD90_s = .
 build/asm/3AD90.s.o(.data)
 .data          0x000000008007c030        0x0 build/asm/3AD90.s.o
                0x000000008007c030                _3C840_s = .
 build/asm/3C840.s.o(.data)
 .data          0x000000008007c030        0x0 build/asm/3C840.s.o
                0x000000008007c030                _3F900_s = .
 build/asm/3F900.s.o(.data)
 .data          0x000000008007c030        0x0 build/asm/3F900.s.o
                0x000000008007c030                _43090_s = .
 build/asm/43090.s.o(.data)
 .data          0x000000008007c030        0x0 build/asm/43090.s.o
                0x000000008007c030                _470E0_s = .
 build/asm/470E0.s.o(.data)
 .data          0x000000008007c030        0x0 build/asm/470E0.s.o
                0x000000008007c030                _4B490_s = .
 build/asm/4B490.s.o(.data)
 .data          0x000000008007c030        0x0 build/asm/4B490.s.o
                0x000000008007c030                _4FA50_s = .
 build/asm/4FA50.s.o(.data)
 .data          0x000000008007c030        0x0 build/asm/4FA50.s.o
                0x000000008007c030                _53A60_s = .
 build/asm/53A60.s.o(.data)
 .data          0x000000008007c030        0x0 build/asm/53A60.s.o
                0x000000008007c030                _57E00_s = .
 build/asm/57E00.s.o(.data)
 .data          0x000000008007c030        0x0 build/asm/57E00.s.o
                0x000000008007c030                _58530_s = .
 build/asm/58530.s.o(.data)
 .data          0x000000008007c030        0x0 build/asm/58530.s.o
                0x000000008007c030                _58710_s = .
 build/asm/58710.s.o(.data)
 .data          0x000000008007c030        0x0 build/asm/58710.s.o
                0x000000008007c030                _5D0C0_s = .
 build/asm/5D0C0.s.o(.data)
 .data          0x000000008007c030        0x0 build/asm/5D0C0.s.o
                0x000000008007c030                _5D350_s = .
 build/asm/5D350.s.o(.data)
 .data          0x000000008007c030        0x0 build/asm/5D350.s.o
                0x000000008007c030                _5F6B0_s = .
 build/asm/5F6B0.s.o(.data)
 .data          0x000000008007c030        0x0 build/asm/5F6B0.s.o
                0x000000008007c030                _61570_s = .
 build/asm/61570.s.o(.data)
 .data          0x000000008007c030        0x0 build/asm/61570.s.o
                0x000000008007c030                _62900_s = .
 build/asm/62900.s.o(.data)
 .data          0x000000008007c030        0x0 build/asm/62900.s.o
                0x000000008007c030                _63A60_s = .
 build/asm/63A60.s.o(.data)
 .data          0x000000008007c030        0x0 build/asm/63A60.s.o
                0x000000008007c030                _65610_s = .
 build/asm/65610.s.o(.data)
 .data          0x000000008007c030        0x0 build/asm/65610.s.o
                0x000000008007c030                _65FF0_s = .
 build/asm/65FF0.s.o(.data)
 .data          0x000000008007c030        0x0 build/asm/65FF0.s.o
                0x000000008007c030                _66230_s = .
 build/asm/66230.s.o(.data)
 .data          0x000000008007c030        0x0 build/asm/66230.s.o
                0x000000008007c030                _66340_s = .
 build/asm/66340.s.o(.data)
 .data          0x000000008007c030        0x0 build/asm/66340.s.o
                0x000000008007c030                _66740_s = .
 build/asm/66740.s.o(.data)
 .data          0x000000008007c030        0x0 build/asm/66740.s.o
                0x000000008007c030                _667A0_s = .
 build/asm/667A0.s.o(.data)
 .data          0x000000008007c030        0x0 build/asm/667A0.s.o
                0x000000008007c030                _669F0_s = .
 build/asm/669F0.s.o(.data)
 .data          0x000000008007c030        0x0 build/asm/669F0.s.o
                0x000000008007c030                _66A30_s = .
 build/asm/66A30.s.o(.data)
 .data          0x000000008007c030        0x0 build/asm/66A30.s.o
                0x000000008007c030                _66A60_s = .
 build/asm/66A60.s.o(.data)
 .data          0x000000008007c030        0x0 build/asm/66A60.s.o
                0x000000008007c030                _66B10_s = .
 build/asm/66B10.s.o(.data)
 .data          0x000000008007c030        0x0 build/asm/66B10.s.o
                0x000000008007c030                _66C20_s = .
 build/asm/66C20.s.o(.data)
 .data          0x000000008007c030        0x0 build/asm/66C20.s.o
                0x000000008007c030                _66C60_s = .
 build/asm/66C60.s.o(.data)
 .data          0x000000008007c030        0x0 build/asm/66C60.s.o
                0x000000008007c030                _66DD0_s = .
 build/asm/66DD0.s.o(.data)
 .data          0x000000008007c030        0x0 build/asm/66DD0.s.o
                0x000000008007c030                _67890_s = .
 build/asm/67890.s.o(.data)
 .data          0x000000008007c030        0x0 build/asm/67890.s.o
                0x000000008007c030                _678D0_s = .
 build/asm/678D0.s.o(.data)
 .data          0x000000008007c030        0x0 build/asm/678D0.s.o
                0x000000008007c030                _68220_s = .
 build/asm/68220.s.o(.data)
 .data          0x000000008007c030        0x0 build/asm/68220.s.o
                0x000000008007c030                _682C0_s = .
 build/asm/682C0.s.o(.data)
 .data          0x000000008007c030        0x0 build/asm/682C0.s.o
                0x000000008007c030                _682E0_s = .
 build/asm/682E0.s.o(.data)
 .data          0x000000008007c030        0x0 build/asm/682E0.s.o
                0x000000008007c030                _68340_s = .
 build/asm/68340.s.o(.data)
 .data          0x000000008007c030        0x0 build/asm/68340.s.o
                0x000000008007c030                _683A0_s = .
 build/asm/683A0.s.o(.data)
 .data          0x000000008007c030        0x0 build/asm/683A0.s.o
                0x000000008007c030                _68400_s = .
 build/asm/68400.s.o(.data)
 .data          0x000000008007c030        0x0 build/asm/68400.s.o
                0x000000008007c030                _68460_s = .
 build/asm/68460.s.o(.data)
 .data          0x000000008007c030        0x0 build/asm/68460.s.o
                0x000000008007c030                _684B0_s = .
 build/asm/684B0.s.o(.data)
 .data          0x000000008007c030        0x0 build/asm/684B0.s.o
                0x000000008007c030                code_68590_c = .
 build/src/code_68590.c.o(.data)
                0x000000008007c030                _68900_s = .
 build/asm/68900.s.o(.data)
 .data          0x000000008007c030        0x0 build/asm/68900.s.o
                0x000000008007c030                _68A80_s = .
 build/asm/68A80.s.o(.data)
 .data          0x000000008007c030        0x0 build/asm/68A80.s.o
                0x000000008007c030                _68AB0_s = .
 build/asm/68AB0.s.o(.data)
 .data          0x000000008007c030        0x0 build/asm/68AB0.s.o
                0x000000008007c030                _68B30_s = .
 build/asm/68B30.s.o(.data)
 .data          0x000000008007c030        0x0 build/asm/68B30.s.o
                0x000000008007c030                _68BE0_s = .
 build/asm/68BE0.s.o(.data)
 .data          0x000000008007c030        0x0 build/asm/68BE0.s.o
                0x000000008007c030                _68BF0_s = .
 build/asm/68BF0.s.o(.data)
 .data          0x000000008007c030        0x0 build/asm/68BF0.s.o
                0x000000008007c030                _69420_s = .
 build/asm/69420.s.o(.data)
 .data          0x000000008007c030        0x0 build/asm/69420.s.o
                0x000000008007c030                _6AD60_s = .
 build/asm/6AD60.s.o(.data)
 .data          0x000000008007c030        0x0 build/asm/6AD60.s.o
                0x000000008007c030                _6B170_s = .
 build/asm/6B170.s.o(.data)
 .data          0x000000008007c030        0x0 build/asm/6B170.s.o
                0x000000008007c030                _6B2C0_s = .
 build/asm/6B2C0.s.o(.data)
 .data          0x000000008007c030        0x0 build/asm/6B2C0.s.o
                0x000000008007c030                _6B350_s = .
 build/asm/6B350.s.o(.data)
 .data          0x000000008007c030        0x0 build/asm/6B350.s.o
                0x000000008007c030                _6B580_s = .
 build/asm/6B580.s.o(.data)
 .data          0x000000008007c030        0x0 build/asm/6B580.s.o
                0x000000008007c030                _6B670_s = .
 build/asm/6B670.s.o(.data)
 .data          0x000000008007c030        0x0 build/asm/6B670.s.o
                0x000000008007c030                _6B710_s = .
 build/asm/6B710.s.o(.data)
 .data          0x000000008007c030        0x0 build/asm/6B710.s.o
                0x000000008007c030                _6B850_s = .
 build/asm/6B850.s.o(.data)
 .data          0x000000008007c030        0x0 build/asm/6B850.s.o
                0x000000008007c030                _6B9F0_s = .
 build/asm/6B9F0.s.o(.data)
 .data          0x000000008007c030        0x0 build/asm/6B9F0.s.o
                0x000000008007c030                main_DATA_END = .
                0x0000000000000000                main_DATA_SIZE = ABSOLUTE ((main_DATA_END - main_DATA_START))
                0x000000008007c030                main_RODATA_START = .
 build/asm/1000.s.o(.rodata)
 build/asm/11C0.s.o(.rodata)
 build/asm/1FC0.s.o(.rodata)
 build/asm/2360.s.o(.rodata)
 build/asm/2D80.s.o(.rodata)
 build/asm/5850.s.o(.rodata)
 build/asm/6BE0.s.o(.rodata)
 build/asm/6C90.s.o(.rodata)
 build/asm/6EA0.s.o(.rodata)
 build/asm/9D50.s.o(.rodata)
 build/asm/A160.s.o(.rodata)
 build/asm/A220.s.o(.rodata)
 build/asm/A910.s.o(.rodata)
 build/asm/DA40.s.o(.rodata)
 build/asm/E270.s.o(.rodata)
 build/asm/EBD0.s.o(.rodata)
 build/asm/EC90.s.o(.rodata)
 build/asm/10520.s.o(.rodata)
 build/asm/10640.s.o(.rodata)
 build/asm/108F0.s.o(.rodata)
 build/asm/10D60.s.o(.rodata)
 build/asm/12760.s.o(.rodata)
 build/asm/14060.s.o(.rodata)
 build/asm/14720.s.o(.rodata)
 build/asm/15020.s.o(.rodata)
 build/asm/15D60.s.o(.rodata)
 build/asm/16840.s.o(.rodata)
 build/asm/16BD0.s.o(.rodata)
 build/asm/198F0.s.o(.rodata)
 build/asm/19A90.s.o(.rodata)
 build/asm/19AA0.s.o(.rodata)
 build/src/code_1A230.c.o(.rodata)
 build/asm/1CA50.s.o(.rodata)
 build/asm/1CC30.s.o(.rodata)
 build/asm/1EDC0.s.o(.rodata)
 build/asm/1F0E0.s.o(.rodata)
 build/asm/1FD50.s.o(.rodata)
 build/asm/202A0.s.o(.rodata)
 build/asm/20D90.s.o(.rodata)
 build/asm/22680.s.o(.rodata)
 build/asm/22EC0.s.o(.rodata)
 build/asm/24530.s.o(.rodata)
 build/asm/24890.s.o(.rodata)
 build/asm/24B70.s.o(.rodata)
 build/asm/24CC0.s.o(.rodata)
 build/asm/24D00.s.o(.rodata)
 build/asm/24DF0.s.o(.rodata)
 build/asm/24E40.s.o(.rodata)
 build/asm/24EE0.s.o(.rodata)
 build/asm/25440.s.o(.rodata)
 build/asm/255D0.s.o(.rodata)
 build/asm/25760.s.o(.rodata)
 build/asm/25A60.s.o(.rodata)
 build/asm/25BE0.s.o(.rodata)
 build/asm/25D70.s.o(.rodata)
 build/asm/25F20.s.o(.rodata)
 build/asm/25FC0.s.o(.rodata)
 build/asm/26440.s.o(.rodata)
 build/asm/26520.s.o(.rodata)
 build/asm/265C0.s.o(.rodata)
 build/asm/26610.s.o(.rodata)
 build/asm/28470.s.o(.rodata)
 build/asm/2E0B0.s.o(.rodata)
 build/asm/2F1E0.s.o(.rodata)
 build/asm/337B0.s.o(.rodata)
 build/asm/37B40.s.o(.rodata)
 build/asm/3AD90.s.o(.rodata)
 build/asm/3C840.s.o(.rodata)
 build/asm/3F900.s.o(.rodata)
 build/asm/43090.s.o(.rodata)
 build/asm/470E0.s.o(.rodata)
 build/asm/4B490.s.o(.rodata)
 build/asm/4FA50.s.o(.rodata)
 build/asm/53A60.s.o(.rodata)
 build/asm/57E00.s.o(.rodata)
 build/asm/58530.s.o(.rodata)
 build/asm/58710.s.o(.rodata)
 build/asm/5D0C0.s.o(.rodata)
 build/asm/5D350.s.o(.rodata)
 build/asm/5F6B0.s.o(.rodata)
 build/asm/61570.s.o(.rodata)
 build/asm/62900.s.o(.rodata)
 build/asm/63A60.s.o(.rodata)
 build/asm/65610.s.o(.rodata)
 build/asm/65FF0.s.o(.rodata)
 build/asm/66230.s.o(.rodata)
 build/asm/66340.s.o(.rodata)
 build/asm/66740.s.o(.rodata)
 build/asm/667A0.s.o(.rodata)
 build/asm/669F0.s.o(.rodata)
 build/asm/66A30.s.o(.rodata)
 build/asm/66A60.s.o(.rodata)
 build/asm/66B10.s.o(.rodata)
 build/asm/66C20.s.o(.rodata)
 build/asm/66C60.s.o(.rodata)
 build/asm/66DD0.s.o(.rodata)
 build/asm/67890.s.o(.rodata)
 build/asm/678D0.s.o(.rodata)
 build/asm/68220.s.o(.rodata)
 build/asm/682C0.s.o(.rodata)
 build/asm/682E0.s.o(.rodata)
 build/asm/68340.s.o(.rodata)
 build/asm/683A0.s.o(.rodata)
 build/asm/68400.s.o(.rodata)
 build/asm/68460.s.o(.rodata)
 build/asm/684B0.s.o(.rodata)
 build/src/code_68590.c.o(.rodata)
 build/asm/68900.s.o(.rodata)
 build/asm/68A80.s.o(.rodata)
 build/asm/68AB0.s.o(.rodata)
 build/asm/68B30.s.o(.rodata)
 build/asm/68BE0.s.o(.rodata)
 build/asm/68BF0.s.o(.rodata)
 build/asm/69420.s.o(.rodata)
 build/asm/6AD60.s.o(.rodata)
 build/asm/6B170.s.o(.rodata)
 build/asm/6B2C0.s.o(.rodata)
 build/asm/6B350.s.o(.rodata)
 build/asm/6B580.s.o(.rodata)
 build/asm/6B670.s.o(.rodata)
 build/asm/6B710.s.o(.rodata)
 build/asm/6B850.s.o(.rodata)
 build/asm/6B9F0.s.o(.rodata)
                0x000000008007c030                main_RODATA_END = .
                0x0000000000000000                main_RODATA_SIZE = ABSOLUTE ((main_RODATA_END - main_RODATA_START))
                0x000000008007c030                main_bss_VRAM = ADDR (.main_bss)

.main_bss       0x000000008007c030        0x0 load address 0x000000000007cc30
                0x000000008007c030                main_BSS_START = .
 build/asm/1000.s.o(.bss)
 .bss           0x000000008007c030        0x0 build/asm/1000.s.o
 build/asm/11C0.s.o(.bss)
 .bss           0x000000008007c030        0x0 build/asm/11C0.s.o
 build/asm/1FC0.s.o(.bss)
 .bss           0x000000008007c030        0x0 build/asm/1FC0.s.o
 build/asm/2360.s.o(.bss)
 .bss           0x000000008007c030        0x0 build/asm/2360.s.o
 build/asm/2D80.s.o(.bss)
 .bss           0x000000008007c030        0x0 build/asm/2D80.s.o
 build/asm/5850.s.o(.bss)
 .bss           0x000000008007c030        0x0 build/asm/5850.s.o
 build/asm/6BE0.s.o(.bss)
 .bss           0x000000008007c030        0x0 build/asm/6BE0.s.o
 build/asm/6C90.s.o(.bss)
 .bss           0x000000008007c030        0x0 build/asm/6C90.s.o
 build/asm/6EA0.s.o(.bss)
 .bss           0x000000008007c030        0x0 build/asm/6EA0.s.o
 build/asm/9D50.s.o(.bss)
 .bss           0x000000008007c030        0x0 build/asm/9D50.s.o
 build/asm/A160.s.o(.bss)
 .bss           0x000000008007c030        0x0 build/asm/A160.s.o
 build/asm/A220.s.o(.bss)
 .bss           0x000000008007c030        0x0 build/asm/A220.s.o
 build/asm/A910.s.o(.bss)
 .bss           0x000000008007c030        0x0 build/asm/A910.s.o
 build/asm/DA40.s.o(.bss)
 .bss           0x000000008007c030        0x0 build/asm/DA40.s.o
 build/asm/E270.s.o(.bss)
 .bss           0x000000008007c030        0x0 build/asm/E270.s.o
 build/asm/EBD0.s.o(.bss)
 .bss           0x000000008007c030        0x0 build/asm/EBD0.s.o
 build/asm/EC90.s.o(.bss)
 .bss           0x000000008007c030        0x0 build/asm/EC90.s.o
 build/asm/10520.s.o(.bss)
 .bss           0x000000008007c030        0x0 build/asm/10520.s.o
 build/asm/10640.s.o(.bss)
 .bss           0x000000008007c030        0x0 build/asm/10640.s.o
 build/asm/108F0.s.o(.bss)
 .bss           0x000000008007c030        0x0 build/asm/108F0.s.o
 build/asm/10D60.s.o(.bss)
 .bss           0x000000008007c030        0x0 build/asm/10D60.s.o
 build/asm/12760.s.o(.bss)
 .bss           0x000000008007c030        0x0 build/asm/12760.s.o
 build/asm/14060.s.o(.bss)
 .bss           0x000000008007c030        0x0 build/asm/14060.s.o
 build/asm/14720.s.o(.bss)
 .bss           0x000000008007c030        0x0 build/asm/14720.s.o
 build/asm/15020.s.o(.bss)
 .bss           0x000000008007c030        0x0 build/asm/15020.s.o
 build/asm/15D60.s.o(.bss)
 .bss           0x000000008007c030        0x0 build/asm/15D60.s.o
 build/asm/16840.s.o(.bss)
 .bss           0x000000008007c030        0x0 build/asm/16840.s.o
 build/asm/16BD0.s.o(.bss)
 .bss           0x000000008007c030        0x0 build/asm/16BD0.s.o
 build/asm/198F0.s.o(.bss)
 .bss           0x000000008007c030        0x0 build/asm/198F0.s.o
 build/asm/19A90.s.o(.bss)
 .bss           0x000000008007c030        0x0 build/asm/19A90.s.o
 build/asm/19AA0.s.o(.bss)
 .bss           0x000000008007c030        0x0 build/asm/19AA0.s.o
 build/src/code_1A230.c.o(.bss)
 build/asm/1CA50.s.o(.bss)
 .bss           0x000000008007c030        0x0 build/asm/1CA50.s.o
 build/asm/1CC30.s.o(.bss)
 .bss           0x000000008007c030        0x0 build/asm/1CC30.s.o
 build/asm/1EDC0.s.o(.bss)
 .bss           0x000000008007c030        0x0 build/asm/1EDC0.s.o
 build/asm/1F0E0.s.o(.bss)
 .bss           0x000000008007c030        0x0 build/asm/1F0E0.s.o
 build/asm/1FD50.s.o(.bss)
 .bss           0x000000008007c030        0x0 build/asm/1FD50.s.o
 build/asm/202A0.s.o(.bss)
 .bss           0x000000008007c030        0x0 build/asm/202A0.s.o
 build/asm/20D90.s.o(.bss)
 .bss           0x000000008007c030        0x0 build/asm/20D90.s.o
 build/asm/22680.s.o(.bss)
 .bss           0x000000008007c030        0x0 build/asm/22680.s.o
 build/asm/22EC0.s.o(.bss)
 .bss           0x000000008007c030        0x0 build/asm/22EC0.s.o
 build/asm/24530.s.o(.bss)
 .bss           0x000000008007c030        0x0 build/asm/24530.s.o
 build/asm/24890.s.o(.bss)
 .bss           0x000000008007c030        0x0 build/asm/24890.s.o
 build/asm/24B70.s.o(.bss)
 .bss           0x000000008007c030        0x0 build/asm/24B70.s.o
 build/asm/24CC0.s.o(.bss)
 .bss           0x000000008007c030        0x0 build/asm/24CC0.s.o
 build/asm/24D00.s.o(.bss)
 .bss           0x000000008007c030        0x0 build/asm/24D00.s.o
 build/asm/24DF0.s.o(.bss)
 .bss           0x000000008007c030        0x0 build/asm/24DF0.s.o
 build/asm/24E40.s.o(.bss)
 .bss           0x000000008007c030        0x0 build/asm/24E40.s.o
 build/asm/24EE0.s.o(.bss)
 .bss           0x000000008007c030        0x0 build/asm/24EE0.s.o
 build/asm/25440.s.o(.bss)
 .bss           0x000000008007c030        0x0 build/asm/25440.s.o
 build/asm/255D0.s.o(.bss)
 .bss           0x000000008007c030        0x0 build/asm/255D0.s.o
 build/asm/25760.s.o(.bss)
 .bss           0x000000008007c030        0x0 build/asm/25760.s.o
 build/asm/25A60.s.o(.bss)
 .bss           0x000000008007c030        0x0 build/asm/25A60.s.o
 build/asm/25BE0.s.o(.bss)
 .bss           0x000000008007c030        0x0 build/asm/25BE0.s.o
 build/asm/25D70.s.o(.bss)
 .bss           0x000000008007c030        0x0 build/asm/25D70.s.o
 build/asm/25F20.s.o(.bss)
 .bss           0x000000008007c030        0x0 build/asm/25F20.s.o
 build/asm/25FC0.s.o(.bss)
 .bss           0x000000008007c030        0x0 build/asm/25FC0.s.o
 build/asm/26440.s.o(.bss)
 .bss           0x000000008007c030        0x0 build/asm/26440.s.o
 build/asm/26520.s.o(.bss)
 .bss           0x000000008007c030        0x0 build/asm/26520.s.o
 build/asm/265C0.s.o(.bss)
 .bss           0x000000008007c030        0x0 build/asm/265C0.s.o
 build/asm/26610.s.o(.bss)
 .bss           0x000000008007c030        0x0 build/asm/26610.s.o
 build/asm/28470.s.o(.bss)
 .bss           0x000000008007c030        0x0 build/asm/28470.s.o
 build/asm/2E0B0.s.o(.bss)
 .bss           0x000000008007c030        0x0 build/asm/2E0B0.s.o
 build/asm/2F1E0.s.o(.bss)
 .bss           0x000000008007c030        0x0 build/asm/2F1E0.s.o
 build/asm/337B0.s.o(.bss)
 .bss           0x000000008007c030        0x0 build/asm/337B0.s.o
 build/asm/37B40.s.o(.bss)
 .bss           0x000000008007c030        0x0 build/asm/37B40.s.o
 build/asm/3AD90.s.o(.bss)
 .bss           0x000000008007c030        0x0 build/asm/3AD90.s.o
 build/asm/3C840.s.o(.bss)
 .bss           0x000000008007c030        0x0 build/asm/3C840.s.o
 build/asm/3F900.s.o(.bss)
 .bss           0x000000008007c030        0x0 build/asm/3F900.s.o
 build/asm/43090.s.o(.bss)
 .bss           0x000000008007c030        0x0 build/asm/43090.s.o
 build/asm/470E0.s.o(.bss)
 .bss           0x000000008007c030        0x0 build/asm/470E0.s.o
 build/asm/4B490.s.o(.bss)
 .bss           0x000000008007c030        0x0 build/asm/4B490.s.o
 build/asm/4FA50.s.o(.bss)
 .bss           0x000000008007c030        0x0 build/asm/4FA50.s.o
 build/asm/53A60.s.o(.bss)
 .bss           0x000000008007c030        0x0 build/asm/53A60.s.o
 build/asm/57E00.s.o(.bss)
 .bss           0x000000008007c030        0x0 build/asm/57E00.s.o
 build/asm/58530.s.o(.bss)
 .bss           0x000000008007c030        0x0 build/asm/58530.s.o
 build/asm/58710.s.o(.bss)
 .bss           0x000000008007c030        0x0 build/asm/58710.s.o
 build/asm/5D0C0.s.o(.bss)
 .bss           0x000000008007c030        0x0 build/asm/5D0C0.s.o
 build/asm/5D350.s.o(.bss)
 .bss           0x000000008007c030        0x0 build/asm/5D350.s.o
 build/asm/5F6B0.s.o(.bss)
 .bss           0x000000008007c030        0x0 build/asm/5F6B0.s.o
 build/asm/61570.s.o(.bss)
 .bss           0x000000008007c030        0x0 build/asm/61570.s.o
 build/asm/62900.s.o(.bss)
 .bss           0x000000008007c030        0x0 build/asm/62900.s.o
 build/asm/63A60.s.o(.bss)
 .bss           0x000000008007c030        0x0 build/asm/63A60.s.o
 build/asm/65610.s.o(.bss)
 .bss           0x000000008007c030        0x0 build/asm/65610.s.o
 build/asm/65FF0.s.o(.bss)
 .bss           0x000000008007c030        0x0 build/asm/65FF0.s.o
 build/asm/66230.s.o(.bss)
 .bss           0x000000008007c030        0x0 build/asm/66230.s.o
 build/asm/66340.s.o(.bss)
 .bss           0x000000008007c030        0x0 build/asm/66340.s.o
 build/asm/66740.s.o(.bss)
 .bss           0x000000008007c030        0x0 build/asm/66740.s.o
 build/asm/667A0.s.o(.bss)
 .bss           0x000000008007c030        0x0 build/asm/667A0.s.o
 build/asm/669F0.s.o(.bss)
 .bss           0x000000008007c030        0x0 build/asm/669F0.s.o
 build/asm/66A30.s.o(.bss)
 .bss           0x000000008007c030        0x0 build/asm/66A30.s.o
 build/asm/66A60.s.o(.bss)
 .bss           0x000000008007c030        0x0 build/asm/66A60.s.o
 build/asm/66B10.s.o(.bss)
 .bss           0x000000008007c030        0x0 build/asm/66B10.s.o
 build/asm/66C20.s.o(.bss)
 .bss           0x000000008007c030        0x0 build/asm/66C20.s.o
 build/asm/66C60.s.o(.bss)
 .bss           0x000000008007c030        0x0 build/asm/66C60.s.o
 build/asm/66DD0.s.o(.bss)
 .bss           0x000000008007c030        0x0 build/asm/66DD0.s.o
 build/asm/67890.s.o(.bss)
 .bss           0x000000008007c030        0x0 build/asm/67890.s.o
 build/asm/678D0.s.o(.bss)
 .bss           0x000000008007c030        0x0 build/asm/678D0.s.o
 build/asm/68220.s.o(.bss)
 .bss           0x000000008007c030        0x0 build/asm/68220.s.o
 build/asm/682C0.s.o(.bss)
 .bss           0x000000008007c030        0x0 build/asm/682C0.s.o
 build/asm/682E0.s.o(.bss)
 .bss           0x000000008007c030        0x0 build/asm/682E0.s.o
 build/asm/68340.s.o(.bss)
 .bss           0x000000008007c030        0x0 build/asm/68340.s.o
 build/asm/683A0.s.o(.bss)
 .bss           0x000000008007c030        0x0 build/asm/683A0.s.o
 build/asm/68400.s.o(.bss)
 .bss           0x000000008007c030        0x0 build/asm/68400.s.o
 build/asm/68460.s.o(.bss)
 .bss           0x000000008007c030        0x0 build/asm/68460.s.o
 build/asm/684B0.s.o(.bss)
 .bss           0x000000008007c030        0x0 build/asm/684B0.s.o
 build/src/code_68590.c.o(.bss)
 build/asm/68900.s.o(.bss)
 .bss           0x000000008007c030        0x0 build/asm/68900.s.o
 build/asm/68A80.s.o(.bss)
 .bss           0x000000008007c030        0x0 build/asm/68A80.s.o
 build/asm/68AB0.s.o(.bss)
 .bss           0x000000008007c030        0x0 build/asm/68AB0.s.o
 build/asm/68B30.s.o(.bss)
 .bss           0x000000008007c030        0x0 build/asm/68B30.s.o
 build/asm/68BE0.s.o(.bss)
 .bss           0x000000008007c030        0x0 build/asm/68BE0.s.o
 build/asm/68BF0.s.o(.bss)
 .bss           0x000000008007c030        0x0 build/asm/68BF0.s.o
 build/asm/69420.s.o(.bss)
 .bss           0x000000008007c030        0x0 build/asm/69420.s.o
 build/asm/6AD60.s.o(.bss)
 .bss           0x000000008007c030        0x0 build/asm/6AD60.s.o
 build/asm/6B170.s.o(.bss)
 .bss           0x000000008007c030        0x0 build/asm/6B170.s.o
 build/asm/6B2C0.s.o(.bss)
 .bss           0x000000008007c030        0x0 build/asm/6B2C0.s.o
 build/asm/6B350.s.o(.bss)
 .bss           0x000000008007c030        0x0 build/asm/6B350.s.o
 build/asm/6B580.s.o(.bss)
 .bss           0x000000008007c030        0x0 build/asm/6B580.s.o
 build/asm/6B670.s.o(.bss)
 .bss           0x000000008007c030        0x0 build/asm/6B670.s.o
 build/asm/6B710.s.o(.bss)
 .bss           0x000000008007c030        0x0 build/asm/6B710.s.o
 build/asm/6B850.s.o(.bss)
 .bss           0x000000008007c030        0x0 build/asm/6B850.s.o
 build/asm/6B9F0.s.o(.bss)
 .bss           0x000000008007c030        0x0 build/asm/6B9F0.s.o
                0x000000008007c030                main_BSS_END = .
                0x0000000000000000                main_BSS_SIZE = ABSOLUTE ((main_BSS_END - main_BSS_START))
                0x0000000000800000                __romPos = (__romPos + SIZEOF (.main))
                0x0000000000800000                __romPos = ALIGN (__romPos, 0x10)
                0x000000000007cc30                main_ROM_END = __romPos
                0x000000008007c030                main_VRAM_END = .
                0x000000000007cc30                _7CC30_ROM_START = __romPos
                0x000000008007c030                _7CC30_VRAM = ADDR (._7CC30)

._7CC30         0x000000008007c030   0x7833d0 load address 0x000000000007cc30
                0x000000008007c030                _7CC30_DATA_START = .
                0x000000008007c030                _7CC30_bin = .
 build/assets/7CC30.bin.o(.data)
 .data          0x000000008007c030   0x7833d0 build/assets/7CC30.bin.o
                0x000000008007c030                _binary_assets_7CC30_bin_start
                0x00000000807ff400                _binary_assets_7CC30_bin_end
                0x00000000807ff400                _7CC30_DATA_END = .
                0x00000000007833d0                _7CC30_DATA_SIZE = ABSOLUTE ((_7CC30_DATA_END - _7CC30_DATA_START))
                0x0000000000800000                __romPos = (__romPos + SIZEOF (._7CC30))
                0x0000000000800000                _7CC30_ROM_END = __romPos
                0x00000000807ff400                _7CC30_VRAM_END = .

/DISCARD/
 *(*)
                0x00000000000c88d0                D_C88D0 = 0xc88d0
                0x0000000000183b90                D_183B90 = 0x183b90
                0x000000000049fad0                D_49FAD0 = 0x49fad0
                0x00000000004a30f0                D_4A30F0 = 0x4a30f0
                0x000000000057b330                D_57B330 = 0x57b330
                0x00000000005a0490                D_5A0490 = 0x5a0490
                0x00000000005a2840                D_5A2840 = 0x5a2840
                0x0000000001004e68                D_1004E68 = 0x1004e68
                0x00000000010051d0                D_10051D0 = 0x10051d0
                0x00000000010051f8                D_10051F8 = 0x10051f8
                0x0000000001005560                D_1005560 = 0x1005560
                0x0000000001005588                D_1005588 = 0x1005588
                0x00000000010058f0                D_10058F0 = 0x10058f0
                0x0000000001005918                D_1005918 = 0x1005918
                0x0000000001005c80                D_1005C80 = 0x1005c80
                0x0000000001005ca8                D_1005CA8 = 0x1005ca8
                0x0000000001006010                D_1006010 = 0x1006010
                0x0000000001006038                D_1006038 = 0x1006038
                0x00000000010063a0                D_10063A0 = 0x10063a0
                0x00000000010063c8                D_10063C8 = 0x10063c8
                0x00000000010069d0                D_10069D0 = 0x10069d0
                0x00000000010069f8                D_10069F8 = 0x10069f8
                0x0000000001007000                D_1007000 = 0x1007000
                0x0000000001007028                D_1007028 = 0x1007028
                0x0000000001007630                D_1007630 = 0x1007630
                0x0000000001007658                D_1007658 = 0x1007658
                0x0000000001007c60                D_1007C60 = 0x1007c60
                0x0000000001007c88                D_1007C88 = 0x1007c88
                0x0000000001008290                D_1008290 = 0x1008290
                0x00000000010082b8                D_10082B8 = 0x10082b8
                0x00000000010088c0                D_10088C0 = 0x10088c0
                0x00000000010088e8                D_10088E8 = 0x10088e8
                0x0000000001008ef0                D_1008EF0 = 0x1008ef0
                0x0000000001008f18                D_1008F18 = 0x1008f18
                0x0000000001009520                D_1009520 = 0x1009520
                0x0000000001009548                D_1009548 = 0x1009548
                0x0000000001009b50                D_1009B50 = 0x1009b50
                0x0000000001009b78                D_1009B78 = 0x1009b78
                0x000000000100a180                D_100A180 = 0x100a180
                0x000000000100a1a8                D_100A1A8 = 0x100a1a8
                0x000000000100a268                D_100A268 = 0x100a268
                0x000000000100a288                D_100A288 = 0x100a288
                0x000000000100c090                D_100C090 = 0x100c090
                0x000000000100c0b8                D_100C0B8 = 0x100c0b8
                0x0000000001010680                D_1010680 = 0x1010680
                0x0000000001010768                D_1010768 = 0x1010768
                0x0000000001011170                D_1011170 = 0x1011170
                0x0000000001012580                D_1012580 = 0x1012580
                0x00000000010aaf68                D_10AAF68 = 0x10aaf68
                0x00000000010b04a8                D_10B04A8 = 0x10b04a8
                0x00000000010b8198                D_10B8198 = 0x10b8198
                0x00000000010b9288                D_10B9288 = 0x10b9288
                0x0000000080000000                D_80000000 = 0x80000000
                0x0000000080000004                D_80000004 = 0x80000004
                0x0000000080000008                D_80000008 = 0x80000008
                0x000000008000000c                D_8000000C = 0x8000000c
                0x0000000080000300                osTvType = 0x80000300
                0x0000000080000308                osRomBase = 0x80000308
                0x000000008000030c                osResetType = 0x8000030c
                0x000000008000031c                osAppNmiBuffer = 0x8000031c
                0x00000000800708b0                D_800708B0 = 0x800708b0
                0x000000008007d300                D_8007D300 = 0x8007d300
                0x000000008007e730                D_8007E730 = 0x8007e730
                0x000000008007f550                D_8007F550 = 0x8007f550
                0x000000008007f554                D_8007F554 = 0x8007f554
                0x000000008007f558                D_8007F558 = 0x8007f558
                0x000000008007f55c                D_8007F55C = 0x8007f55c
                0x000000008007f560                D_8007F560 = 0x8007f560
                0x0000000080081ef8                D_80081EF8 = 0x80081ef8
                0x0000000080081efc                D_80081EFC = 0x80081efc
                0x0000000080081f00                D_80081F00 = 0x80081f00
                0x0000000080081f04                D_80081F04 = 0x80081f04
                0x0000000080081f08                D_80081F08 = 0x80081f08
                0x0000000080081f0c                D_80081F0C = 0x80081f0c
                0x0000000080081f10                D_80081F10 = 0x80081f10
                0x0000000080081f14                D_80081F14 = 0x80081f14
                0x0000000080081f18                D_80081F18 = 0x80081f18
                0x0000000080081f1c                D_80081F1C = 0x80081f1c
                0x0000000080081f20                D_80081F20 = 0x80081f20
                0x0000000080081f24                D_80081F24 = 0x80081f24
                0x0000000080081f28                D_80081F28 = 0x80081f28
                0x0000000080081f2c                D_80081F2C = 0x80081f2c
                0x0000000080081f30                D_80081F30 = 0x80081f30
                0x0000000080081f48                D_80081F48 = 0x80081f48
                0x0000000080081f60                D_80081F60 = 0x80081f60
                0x0000000080081f80                D_80081F80 = 0x80081f80
                0x0000000080081fa0                D_80081FA0 = 0x80081fa0
                0x0000000080081fa4                D_80081FA4 = 0x80081fa4
                0x0000000080081fa8                D_80081FA8 = 0x80081fa8
                0x0000000080081fac                D_80081FAC = 0x80081fac
                0x0000000080081fb0                D_80081FB0 = 0x80081fb0
                0x0000000080081fb4                D_80081FB4 = 0x80081fb4
                0x0000000080081fb8                D_80081FB8 = 0x80081fb8
                0x0000000080081fbc                D_80081FBC = 0x80081fbc
                0x0000000080081fc0                D_80081FC0 = 0x80081fc0
                0x0000000080081fc4                D_80081FC4 = 0x80081fc4
                0x0000000080081fc8                D_80081FC8 = 0x80081fc8
                0x0000000080081fd0                D_80081FD0 = 0x80081fd0
                0x0000000080081fd4                D_80081FD4 = 0x80081fd4
                0x0000000080081fe0                D_80081FE0 = 0x80081fe0
                0x0000000080081fec                D_80081FEC = 0x80081fec
                0x00000000800820d0                D_800820D0 = 0x800820d0
                0x00000000800820d4                D_800820D4 = 0x800820d4
                0x0000000080082110                D_80082110 = 0x80082110
                0x0000000080082120                D_80082120 = 0x80082120
                0x0000000080082124                D_80082124 = 0x80082124
                0x000000008008213c                D_8008213C = 0x8008213c
                0x0000000080082148                D_80082148 = 0x80082148
                0x000000008008214b                D_8008214B = 0x8008214b
                0x0000000080082150                D_80082150 = 0x80082150
                0x0000000080082154                D_80082154 = 0x80082154
                0x000000008008215c                D_8008215C = 0x8008215c
                0x0000000080082160                D_80082160 = 0x80082160
                0x0000000080082164                D_80082164 = 0x80082164
                0x0000000080082168                D_80082168 = 0x80082168
                0x000000008008216c                D_8008216C = 0x8008216c
                0x0000000080082170                D_80082170 = 0x80082170
                0x0000000080082174                D_80082174 = 0x80082174
                0x0000000080082178                D_80082178 = 0x80082178
                0x000000008008217c                D_8008217C = 0x8008217c
                0x0000000080082180                D_80082180 = 0x80082180
                0x0000000080082188                D_80082188 = 0x80082188
                0x0000000080082190                D_80082190 = 0x80082190
                0x0000000080082198                D_80082198 = 0x80082198
                0x00000000800821a0                D_800821A0 = 0x800821a0
                0x00000000800821a4                D_800821A4 = 0x800821a4
                0x00000000800821b0                D_800821B0 = 0x800821b0
                0x00000000800821c0                D_800821C0 = 0x800821c0
                0x00000000800821c4                D_800821C4 = 0x800821c4
                0x00000000800821d0                D_800821D0 = 0x800821d0
                0x00000000800821e0                D_800821E0 = 0x800821e0
                0x00000000800821f0                D_800821F0 = 0x800821f0
                0x0000000080082814                D_80082814 = 0x80082814
                0x0000000080082818                D_80082818 = 0x80082818
                0x000000008008281c                D_8008281C = 0x8008281c
                0x0000000080082820                D_80082820 = 0x80082820
                0x0000000080082824                D_80082824 = 0x80082824
                0x0000000080082828                D_80082828 = 0x80082828
                0x000000008008282c                D_8008282C = 0x8008282c
                0x0000000080082830                D_80082830 = 0x80082830
                0x0000000080082840                D_80082840 = 0x80082840
                0x000000008008286c                D_8008286C = 0x8008286c
                0x00000000800828b4                D_800828B4 = 0x800828b4
                0x00000000800828b8                D_800828B8 = 0x800828b8
                0x00000000800828bc                D_800828BC = 0x800828bc
                0x00000000800828c0                D_800828C0 = 0x800828c0
                0x0000000080082a20                D_80082A20 = 0x80082a20
                0x0000000080082a2c                D_80082A2C = 0x80082a2c
                0x0000000080082a38                D_80082A38 = 0x80082a38
                0x0000000080082a44                D_80082A44 = 0x80082a44
                0x0000000080082a50                D_80082A50 = 0x80082a50
                0x0000000080082a5c                D_80082A5C = 0x80082a5c
                0x0000000080082a68                D_80082A68 = 0x80082a68
                0x0000000080082a74                D_80082A74 = 0x80082a74
                0x0000000080082a80                D_80082A80 = 0x80082a80
                0x0000000080082a8c                D_80082A8C = 0x80082a8c
                0x0000000080082a98                D_80082A98 = 0x80082a98
                0x0000000080082aa4                D_80082AA4 = 0x80082aa4
                0x0000000080082ab0                D_80082AB0 = 0x80082ab0
                0x0000000080082abc                D_80082ABC = 0x80082abc
                0x0000000080082ae0                D_80082AE0 = 0x80082ae0
                0x0000000080082b40                D_80082B40 = 0x80082b40
                0x0000000080082b60                D_80082B60 = 0x80082b60
                0x0000000080082b6c                D_80082B6C = 0x80082b6c
                0x0000000080082b78                D_80082B78 = 0x80082b78
                0x0000000080082b9c                D_80082B9C = 0x80082b9c
                0x0000000080082c38                D_80082C38 = 0x80082c38
                0x0000000080082c98                D_80082C98 = 0x80082c98
                0x0000000080082ca4                D_80082CA4 = 0x80082ca4
                0x0000000080082cb0                D_80082CB0 = 0x80082cb0
                0x0000000080082cc0                D_80082CC0 = 0x80082cc0
                0x0000000080082db8                D_80082DB8 = 0x80082db8
                0x000000008008ade8                D_8008ADE8 = 0x8008ade8
                0x000000008008ae50                D_8008AE50 = 0x8008ae50
                0x000000008008aeb8                D_8008AEB8 = 0x8008aeb8
                0x000000008008af00                D_8008AF00 = 0x8008af00
                0x000000008008af20                D_8008AF20 = 0x8008af20
                0x000000008008af40                D_8008AF40 = 0x8008af40
                0x000000008008af70                D_8008AF70 = 0x8008af70
                0x000000008008afa0                D_8008AFA0 = 0x8008afa0
                0x000000008008afd0                D_8008AFD0 = 0x8008afd0
                0x000000008008b000                D_8008B000 = 0x8008b000
                0x000000008008b090                D_8008B090 = 0x8008b090
                0x000000008008b0e0                D_8008B0E0 = 0x8008b0e0
                0x000000008008b11c                D_8008B11C = 0x8008b11c
                0x000000008008b13c                D_8008B13C = 0x8008b13c
                0x000000008008b150                D_8008B150 = 0x8008b150
                0x000000008008b1a4                D_8008B1A4 = 0x8008b1a4
                0x000000008008b1a8                D_8008B1A8 = 0x8008b1a8
                0x000000008008b1ac                D_8008B1AC = 0x8008b1ac
                0x000000008008b1b0                D_8008B1B0 = 0x8008b1b0
                0x000000008008b1c0                D_8008B1C0 = 0x8008b1c0
                0x000000008008b1d8                D_8008B1D8 = 0x8008b1d8
                0x000000008008b1f0                D_8008B1F0 = 0x8008b1f0
                0x000000008008b1f4                D_8008B1F4 = 0x8008b1f4
                0x000000008008b1f8                D_8008B1F8 = 0x8008b1f8
                0x000000008008b200                D_8008B200 = 0x8008b200
                0x000000008008b204                D_8008B204 = 0x8008b204
                0x000000008008b208                D_8008B208 = 0x8008b208
                0x000000008008b20c                D_8008B20C = 0x8008b20c
                0x000000008008b210                D_8008B210 = 0x8008b210
                0x000000008008b220                D_8008B220 = 0x8008b220
                0x000000008008b258                D_8008B258 = 0x8008b258
                0x000000008008b260                D_8008B260 = 0x8008b260
                0x000000008008b290                D_8008B290 = 0x8008b290
                0x000000008008b298                D_8008B298 = 0x8008b298
                0x000000008008b29c                D_8008B29C = 0x8008b29c
                0x000000008008b308                D_8008B308 = 0x8008b308
                0x000000008008b318                D_8008B318 = 0x8008b318
                0x000000008008b380                D_8008B380 = 0x8008b380
                0x000000008008b3c8                D_8008B3C8 = 0x8008b3c8
                0x000000008008b46c                D_8008B46C = 0x8008b46c
                0x000000008008b474                D_8008B474 = 0x8008b474
                0x000000008008b47c                D_8008B47C = 0x8008b47c
                0x000000008008b494                D_8008B494 = 0x8008b494
                0x000000008008b4a0                D_8008B4A0 = 0x8008b4a0
                0x000000008008b4a4                D_8008B4A4 = 0x8008b4a4
                0x000000008008b4a8                D_8008B4A8 = 0x8008b4a8
                0x000000008008b4ac                D_8008B4AC = 0x8008b4ac
                0x000000008008b4b0                D_8008B4B0 = 0x8008b4b0
                0x000000008008b4e8                D_8008B4E8 = 0x8008b4e8
                0x000000008008b6f0                D_8008B6F0 = 0x8008b6f0
                0x000000008008b6fc                D_8008B6FC = 0x8008b6fc
                0x000000008008b700                D_8008B700 = 0x8008b700
                0x000000008008b714                D_8008B714 = 0x8008b714
                0x000000008008b718                D_8008B718 = 0x8008b718
                0x000000008008b71c                D_8008B71C = 0x8008b71c
                0x000000008008b720                D_8008B720 = 0x8008b720
                0x000000008008b724                D_8008B724 = 0x8008b724
                0x000000008008b740                D_8008B740 = 0x8008b740
                0x000000008008b744                D_8008B744 = 0x8008b744
                0x000000008008b760                D_8008B760 = 0x8008b760
                0x000000008008b764                D_8008B764 = 0x8008b764
                0x000000008008b7dc                D_8008B7DC = 0x8008b7dc
                0x000000008008b7e0                D_8008B7E0 = 0x8008b7e0
                0x000000008008b7e4                D_8008B7E4 = 0x8008b7e4
                0x000000008008b7e8                D_8008B7E8 = 0x8008b7e8
                0x000000008008b7ec                D_8008B7EC = 0x8008b7ec
                0x000000008008b7f0                D_8008B7F0 = 0x8008b7f0
                0x000000008008b800                D_8008B800 = 0x8008b800
                0x000000008008b820                D_8008B820 = 0x8008b820
                0x000000008008b830                D_8008B830 = 0x8008b830
                0x000000008008b840                D_8008B840 = 0x8008b840
                0x000000008008b844                D_8008B844 = 0x8008b844
                0x000000008008b848                D_8008B848 = 0x8008b848
                0x000000008008b84c                D_8008B84C = 0x8008b84c
                0x000000008008b850                D_8008B850 = 0x8008b850
                0x000000008008b854                D_8008B854 = 0x8008b854
                0x000000008008b858                D_8008B858 = 0x8008b858
                0x000000008008b85c                D_8008B85C = 0x8008b85c
                0x000000008008b860                D_8008B860 = 0x8008b860
                0x000000008008b870                D_8008B870 = 0x8008b870
                0x000000008008b8b0                D_8008B8B0 = 0x8008b8b0
                0x000000008008bc38                D_8008BC38 = 0x8008bc38
                0x000000008008bebc                D_8008BEBC = 0x8008bebc
                0x000000008008c0ec                D_8008C0EC = 0x8008c0ec
                0x000000008008c31c                D_8008C31C = 0x8008c31c
                0x000000008008c540                D_8008C540 = 0x8008c540
                0x000000008008c5f0                D_8008C5F0 = 0x8008c5f0
                0x000000008008c6a0                D_8008C6A0 = 0x8008c6a0
                0x000000008008c8c4                D_8008C8C4 = 0x8008c8c4
                0x000000008008c8cc                D_8008C8CC = 0x8008c8cc
                0x000000008008c8d4                D_8008C8D4 = 0x8008c8d4
                0x000000008008c8dc                D_8008C8DC = 0x8008c8dc
                0x000000008008c8e0                __osCurrentTime = 0x8008c8e0
                0x000000008008c8e4                D_8008C8E4 = 0x8008c8e4
                0x000000008008c8e8                D_8008C8E8 = 0x8008c8e8
                0x000000008008c8ec                D_8008C8EC = 0x8008c8ec
                0x000000008008c8f0                D_8008C8F0 = 0x8008c8f0
                0x000000008008c8f4                D_8008C8F4 = 0x8008c8f4
                0x000000008008c8f8                D_8008C8F8 = 0x8008c8f8
                0x000000008008c900                D_8008C900 = 0x8008c900
                0x000000008008c908                D_8008C908 = 0x8008c908
                0x000000008008c910                D_8008C910 = 0x8008c910
                0x000000008008c914                D_8008C914 = 0x8008c914
                0x000000008008c9a0                D_8008C9A0 = 0x8008c9a0
                0x000000008008c9a4                D_8008C9A4 = 0x8008c9a4
                0x000000008008c9a8                D_8008C9A8 = 0x8008c9a8
                0x000000008008c9ac                D_8008C9AC = 0x8008c9ac
                0x000000008008cd10                D_8008CD10 = 0x8008cd10
                0x000000008008cd14                D_8008CD14 = 0x8008cd14
                0x000000008008cd18                D_8008CD18 = 0x8008cd18
                0x000000008008cd1c                D_8008CD1C = 0x8008cd1c
                0x000000008008cd20                D_8008CD20 = 0x8008cd20
                0x000000008008cd24                D_8008CD24 = 0x8008cd24
                0x000000008008cd28                D_8008CD28 = 0x8008cd28
                0x000000008008cd2c                D_8008CD2C = 0x8008cd2c
                0x000000008008cd30                D_8008CD30 = 0x8008cd30
                0x000000008008cd34                D_8008CD34 = 0x8008cd34
                0x000000008008cd38                D_8008CD38 = 0x8008cd38
                0x000000008008cd3c                D_8008CD3C = 0x8008cd3c
                0x000000008008cd40                D_8008CD40 = 0x8008cd40
                0x000000008008cd44                D_8008CD44 = 0x8008cd44
                0x000000008008cd48                D_8008CD48 = 0x8008cd48
                0x000000008008cd50                D_8008CD50 = 0x8008cd50
                0x000000008008cdd0                D_8008CDD0 = 0x8008cdd0
                0x000000008008cde0                D_8008CDE0 = 0x8008cde0
                0x000000008008cdf0                D_8008CDF0 = 0x8008cdf0
                0x000000008008ce00                D_8008CE00 = 0x8008ce00
                0x000000008008ce10                D_8008CE10 = 0x8008ce10
                0x000000008008ce20                D_8008CE20 = 0x8008ce20
                0x000000008008ce30                D_8008CE30 = 0x8008ce30
                0x000000008008ea60                D_8008EA60 = 0x8008ea60
                0x000000008008ea6c                D_8008EA6C = 0x8008ea6c
                0x000000008008ea78                D_8008EA78 = 0x8008ea78
                0x000000008008ea7c                D_8008EA7C = 0x8008ea7c
                0x000000008008ea80                D_8008EA80 = 0x8008ea80
                0x000000008008ea84                D_8008EA84 = 0x8008ea84
                0x000000008008ea88                D_8008EA88 = 0x8008ea88
                0x000000008008ea8c                D_8008EA8C = 0x8008ea8c
                0x000000008008ea90                D_8008EA90 = 0x8008ea90
                0x000000008008ea94                D_8008EA94 = 0x8008ea94
                0x000000008008ea98                D_8008EA98 = 0x8008ea98
                0x000000008008ea9b                D_8008EA9B = 0x8008ea9b
                0x000000008008ea9c                D_8008EA9C = 0x8008ea9c
                0x000000008008eaa0                D_8008EAA0 = 0x8008eaa0
                0x000000008008eaa4                D_8008EAA4 = 0x8008eaa4
                0x000000008008eaa8                D_8008EAA8 = 0x8008eaa8
                0x000000008008eaac                D_8008EAAC = 0x8008eaac
                0x000000008008eab0                D_8008EAB0 = 0x8008eab0
                0x000000008008eab4                D_8008EAB4 = 0x8008eab4
                0x000000008008eab8                D_8008EAB8 = 0x8008eab8
                0x000000008008eabc                D_8008EABC = 0x8008eabc
                0x000000008008eac0                D_8008EAC0 = 0x8008eac0
                0x000000008008eac4                D_8008EAC4 = 0x8008eac4
                0x000000008008ead0                D_8008EAD0 = 0x8008ead0
                0x000000008008ead4                D_8008EAD4 = 0x8008ead4
                0x000000008008ead8                D_8008EAD8 = 0x8008ead8
                0x000000008008eae0                D_8008EAE0 = 0x8008eae0
                0x000000008008eaf0                D_8008EAF0 = 0x8008eaf0
                0x000000008008eb10                D_8008EB10 = 0x8008eb10
                0x000000008008eb30                D_8008EB30 = 0x8008eb30
                0x000000008008eb34                D_8008EB34 = 0x8008eb34
                0x000000008008eb38                D_8008EB38 = 0x8008eb38
                0x000000008008eb3c                D_8008EB3C = 0x8008eb3c
                0x000000008008eb40                D_8008EB40 = 0x8008eb40
                0x000000008008eb44                D_8008EB44 = 0x8008eb44
                0x000000008008eb48                D_8008EB48 = 0x8008eb48
                0x000000008008eb4c                D_8008EB4C = 0x8008eb4c
                0x000000008008eb50                D_8008EB50 = 0x8008eb50
                0x000000008008eb54                D_8008EB54 = 0x8008eb54
                0x000000008008eb58                D_8008EB58 = 0x8008eb58
                0x000000008008eb68                D_8008EB68 = 0x8008eb68
                0x000000008008eb6c                D_8008EB6C = 0x8008eb6c
                0x000000008008eb70                D_8008EB70 = 0x8008eb70
                0x000000008008eb74                D_8008EB74 = 0x8008eb74
                0x000000008008eb78                D_8008EB78 = 0x8008eb78
                0x000000008008eb80                D_8008EB80 = 0x8008eb80
                0x000000008008eb84                D_8008EB84 = 0x8008eb84
                0x000000008008eb88                D_8008EB88 = 0x8008eb88
                0x000000008008eb8c                D_8008EB8C = 0x8008eb8c
                0x000000008008eb90                D_8008EB90 = 0x8008eb90
                0x000000008008eb94                D_8008EB94 = 0x8008eb94
                0x000000008008eb98                D_8008EB98 = 0x8008eb98
                0x000000008008eb9c                D_8008EB9C = 0x8008eb9c
                0x000000008008eba0                D_8008EBA0 = 0x8008eba0
                0x000000008008eba4                D_8008EBA4 = 0x8008eba4
                0x000000008008eba5                D_8008EBA5 = 0x8008eba5
                0x000000008008eba8                D_8008EBA8 = 0x8008eba8
                0x000000008008ebac                D_8008EBAC = 0x8008ebac
                0x000000008008ebb0                D_8008EBB0 = 0x8008ebb0
                0x000000008008ebb4                D_8008EBB4 = 0x8008ebb4
                0x000000008008ebb8                D_8008EBB8 = 0x8008ebb8
                0x000000008008ebbc                D_8008EBBC = 0x8008ebbc
                0x000000008008ebc0                D_8008EBC0 = 0x8008ebc0
                0x000000008008ebc4                D_8008EBC4 = 0x8008ebc4
                0x000000008008ebc8                D_8008EBC8 = 0x8008ebc8
                0x000000008008ebcc                D_8008EBCC = 0x8008ebcc
                0x000000008008ebd0                D_8008EBD0 = 0x8008ebd0
                0x000000008008ec18                D_8008EC18 = 0x8008ec18
                0x000000008008ec60                D_8008EC60 = 0x8008ec60
                0x000000008008eca8                D_8008ECA8 = 0x8008eca8
                0x000000008008ecb8                D_8008ECB8 = 0x8008ecb8
                0x000000008008ecbc                D_8008ECBC = 0x8008ecbc
                0x000000008008ecc0                D_8008ECC0 = 0x8008ecc0
                0x000000008008ecc4                D_8008ECC4 = 0x8008ecc4
                0x000000008008ecc8                D_8008ECC8 = 0x8008ecc8
                0x000000008008eccc                D_8008ECCC = 0x8008eccc
                0x000000008008ecd0                D_8008ECD0 = 0x8008ecd0
                0x000000008008ecd4                D_8008ECD4 = 0x8008ecd4
                0x000000008008ecd8                D_8008ECD8 = 0x8008ecd8
                0x000000008008ecdc                D_8008ECDC = 0x8008ecdc
                0x000000008008ece0                D_8008ECE0 = 0x8008ece0
                0x000000008008ecec                D_8008ECEC = 0x8008ecec
                0x000000008008ed00                D_8008ED00 = 0x8008ed00
                0x000000008008ed04                D_8008ED04 = 0x8008ed04
                0x000000008008ed08                D_8008ED08 = 0x8008ed08
                0x000000008008ed15                D_8008ED15 = 0x8008ed15
                0x000000008008ed18                D_8008ED18 = 0x8008ed18
                0x000000008008ed20                D_8008ED20 = 0x8008ed20
                0x000000008008ed2c                D_8008ED2C = 0x8008ed2c
                0x000000008008ed2d                D_8008ED2D = 0x8008ed2d
                0x000000008008ed2e                D_8008ED2E = 0x8008ed2e
                0x000000008008ed30                D_8008ED30 = 0x8008ed30
                0x000000008008ed34                D_8008ED34 = 0x8008ed34
                0x000000008008ed50                D_8008ED50 = 0x8008ed50
                0x000000008008ed60                D_8008ED60 = 0x8008ed60
                0x000000008008ed64                D_8008ED64 = 0x8008ed64
                0x000000008008ed68                D_8008ED68 = 0x8008ed68
                0x000000008008ed6c                D_8008ED6C = 0x8008ed6c
                0x000000008008ed70                D_8008ED70 = 0x8008ed70
                0x000000008008ed74                D_8008ED74 = 0x8008ed74
                0x000000008008ed78                D_8008ED78 = 0x8008ed78
                0x000000008008ed7c                D_8008ED7C = 0x8008ed7c
                0x000000008008ed80                D_8008ED80 = 0x8008ed80
                0x000000008008ed81                D_8008ED81 = 0x8008ed81
                0x000000008008ed84                D_8008ED84 = 0x8008ed84
                0x000000008008ed88                D_8008ED88 = 0x8008ed88
                0x000000008008ed8c                D_8008ED8C = 0x8008ed8c
                0x000000008008ed98                D_8008ED98 = 0x8008ed98
                0x000000008008edb0                D_8008EDB0 = 0x8008edb0
                0x000000008008edc4                D_8008EDC4 = 0x8008edc4
                0x000000008008edc8                D_8008EDC8 = 0x8008edc8
                0x000000008008edcc                D_8008EDCC = 0x8008edcc
                0x000000008008edd0                D_8008EDD0 = 0x8008edd0
                0x000000008008edd4                D_8008EDD4 = 0x8008edd4
                0x000000008008edd8                D_8008EDD8 = 0x8008edd8
                0x000000008008edd9                D_8008EDD9 = 0x8008edd9
                0x000000008008edda                D_8008EDDA = 0x8008edda
                0x000000008008eddc                D_8008EDDC = 0x8008eddc
                0x000000008008ede0                D_8008EDE0 = 0x8008ede0
                0x000000008008edf4                D_8008EDF4 = 0x8008edf4
                0x000000008008ee14                D_8008EE14 = 0x8008ee14
                0x000000008008ee18                D_8008EE18 = 0x8008ee18
                0x000000008008ee1c                D_8008EE1C = 0x8008ee1c
                0x000000008008ee24                D_8008EE24 = 0x8008ee24
                0x000000008008ee28                D_8008EE28 = 0x8008ee28
                0x000000008008ee2c                D_8008EE2C = 0x8008ee2c
                0x000000008008ee30                D_8008EE30 = 0x8008ee30
                0x000000008008ee34                D_8008EE34 = 0x8008ee34
                0x000000008008ee38                D_8008EE38 = 0x8008ee38
                0x000000008008ee3c                D_8008EE3C = 0x8008ee3c
                0x000000008008ee3d                D_8008EE3D = 0x8008ee3d
                0x000000008008ee40                D_8008EE40 = 0x8008ee40
                0x000000008008ee42                D_8008EE42 = 0x8008ee42
                0x000000008008ee44                D_8008EE44 = 0x8008ee44
                0x000000008008ee48                D_8008EE48 = 0x8008ee48
                0x000000008008ee4c                D_8008EE4C = 0x8008ee4c
                0x000000008008ee50                D_8008EE50 = 0x8008ee50
                0x000000008008ee54                D_8008EE54 = 0x8008ee54
                0x000000008008ee58                D_8008EE58 = 0x8008ee58
                0x000000008008ee5c                D_8008EE5C = 0x8008ee5c
                0x000000008008ee60                D_8008EE60 = 0x8008ee60
                0x000000008008ee70                D_8008EE70 = 0x8008ee70
                0x000000008008ee80                D_8008EE80 = 0x8008ee80
                0x000000008008ee84                D_8008EE84 = 0x8008ee84
                0x000000008008ee88                D_8008EE88 = 0x8008ee88
                0x000000008008ee8c                D_8008EE8C = 0x8008ee8c
                0x000000008008ee90                D_8008EE90 = 0x8008ee90
                0x000000008008ee9c                D_8008EE9C = 0x8008ee9c
                0x000000008008eea0                D_8008EEA0 = 0x8008eea0
                0x000000008008eea4                D_8008EEA4 = 0x8008eea4
                0x000000008008eeb0                D_8008EEB0 = 0x8008eeb0
                0x000000008008eed8                D_8008EED8 = 0x8008eed8
                0x000000008008ef00                D_8008EF00 = 0x8008ef00
                0x000000008008ef04                D_8008EF04 = 0x8008ef04
                0x000000008008ef08                D_8008EF08 = 0x8008ef08
                0x000000008008ef0c                D_8008EF0C = 0x8008ef0c
                0x000000008008ef10                D_8008EF10 = 0x8008ef10
                0x000000008008ef14                D_8008EF14 = 0x8008ef14
                0x000000008008ef18                D_8008EF18 = 0x8008ef18
                0x000000008008ef1c                D_8008EF1C = 0x8008ef1c
                0x000000008008ef28                D_8008EF28 = 0x8008ef28
                0x000000008008ef34                D_8008EF34 = 0x8008ef34
                0x000000008008ef38                D_8008EF38 = 0x8008ef38
                0x000000008008ef39                D_8008EF39 = 0x8008ef39
                0x000000008008ef3a                D_8008EF3A = 0x8008ef3a
                0x000000008008ef3b                D_8008EF3B = 0x8008ef3b
                0x000000008008ef3c                D_8008EF3C = 0x8008ef3c
                0x000000008008ef40                D_8008EF40 = 0x8008ef40
                0x000000008008ef44                D_8008EF44 = 0x8008ef44
                0x000000008008ef48                D_8008EF48 = 0x8008ef48
                0x000000008008ef4c                D_8008EF4C = 0x8008ef4c
                0x000000008008ef50                D_8008EF50 = 0x8008ef50
                0x000000008008ef54                D_8008EF54 = 0x8008ef54
                0x000000008008ef58                D_8008EF58 = 0x8008ef58
                0x000000008008ef60                D_8008EF60 = 0x8008ef60
                0x000000008008ef88                D_8008EF88 = 0x8008ef88
                0x000000008008efb0                D_8008EFB0 = 0x8008efb0
                0x000000008008efb4                D_8008EFB4 = 0x8008efb4
                0x000000008008efb8                D_8008EFB8 = 0x8008efb8
                0x000000008008efbc                D_8008EFBC = 0x8008efbc
                0x000000008008efc0                D_8008EFC0 = 0x8008efc0
                0x000000008008efc4                D_8008EFC4 = 0x8008efc4
                0x000000008008efd0                D_8008EFD0 = 0x8008efd0
                0x000000008008efe0                D_8008EFE0 = 0x8008efe0
                0x000000008008eff0                D_8008EFF0 = 0x8008eff0
                0x000000008008f000                D_8008F000 = 0x8008f000
                0x000000008008f004                D_8008F004 = 0x8008f004
                0x000000008008f008                D_8008F008 = 0x8008f008
                0x000000008008f00c                D_8008F00C = 0x8008f00c
                0x000000008008f010                D_8008F010 = 0x8008f010
                0x000000008008f014                D_8008F014 = 0x8008f014
                0x000000008008f018                D_8008F018 = 0x8008f018
                0x000000008008f01c                D_8008F01C = 0x8008f01c
                0x000000008008f020                D_8008F020 = 0x8008f020
                0x000000008008f024                D_8008F024 = 0x8008f024
                0x000000008008f028                D_8008F028 = 0x8008f028
                0x000000008008f02c                D_8008F02C = 0x8008f02c
                0x000000008008f030                D_8008F030 = 0x8008f030
                0x000000008008f034                D_8008F034 = 0x8008f034
                0x000000008008f040                D_8008F040 = 0x8008f040
                0x000000008008f04c                D_8008F04C = 0x8008f04c
                0x000000008008f054                D_8008F054 = 0x8008f054
                0x000000008008f058                D_8008F058 = 0x8008f058
                0x000000008008f060                D_8008F060 = 0x8008f060
                0x000000008008f064                D_8008F064 = 0x8008f064
                0x000000008008f068                D_8008F068 = 0x8008f068
                0x000000008008f06c                D_8008F06C = 0x8008f06c
                0x000000008008f070                D_8008F070 = 0x8008f070
                0x000000008008f074                D_8008F074 = 0x8008f074
                0x000000008008f078                D_8008F078 = 0x8008f078
                0x000000008008f07c                D_8008F07C = 0x8008f07c
                0x000000008008f080                D_8008F080 = 0x8008f080
                0x000000008008f084                D_8008F084 = 0x8008f084
                0x000000008008f090                D_8008F090 = 0x8008f090
                0x000000008008f094                D_8008F094 = 0x8008f094
                0x000000008008f098                D_8008F098 = 0x8008f098
                0x000000008008f09c                D_8008F09C = 0x8008f09c
                0x000000008008f0b4                D_8008F0B4 = 0x8008f0b4
                0x000000008008f0cc                D_8008F0CC = 0x8008f0cc
                0x000000008008f0d0                D_8008F0D0 = 0x8008f0d0
                0x000000008008f0d4                D_8008F0D4 = 0x8008f0d4
                0x000000008008f0d8                D_8008F0D8 = 0x8008f0d8
                0x000000008008f0e0                D_8008F0E0 = 0x8008f0e0
                0x000000008008f0ec                D_8008F0EC = 0x8008f0ec
                0x000000008008f0f0                D_8008F0F0 = 0x8008f0f0
                0x000000008008f0f4                D_8008F0F4 = 0x8008f0f4
                0x000000008008f0f8                D_8008F0F8 = 0x8008f0f8
                0x000000008008f0fc                D_8008F0FC = 0x8008f0fc
                0x000000008008f100                D_8008F100 = 0x8008f100
                0x000000008008f104                D_8008F104 = 0x8008f104
                0x000000008008f108                D_8008F108 = 0x8008f108
                0x000000008008f10c                D_8008F10C = 0x8008f10c
                0x000000008008f110                D_8008F110 = 0x8008f110
                0x000000008008f114                D_8008F114 = 0x8008f114
                0x000000008008f118                D_8008F118 = 0x8008f118
                0x000000008008f119                D_8008F119 = 0x8008f119
                0x000000008008f11a                D_8008F11A = 0x8008f11a
                0x000000008008f11b                D_8008F11B = 0x8008f11b
                0x000000008008f11c                D_8008F11C = 0x8008f11c
                0x000000008008f120                D_8008F120 = 0x8008f120
                0x000000008008f124                D_8008F124 = 0x8008f124
                0x000000008008f128                D_8008F128 = 0x8008f128
                0x000000008008f130                D_8008F130 = 0x8008f130
                0x000000008008f134                D_8008F134 = 0x8008f134
                0x000000008008f138                D_8008F138 = 0x8008f138
                0x000000008008f13c                D_8008F13C = 0x8008f13c
                0x000000008008f140                D_8008F140 = 0x8008f140
                0x000000008008f144                D_8008F144 = 0x8008f144
                0x000000008008f158                D_8008F158 = 0x8008f158
                0x000000008008f15c                D_8008F15C = 0x8008f15c
                0x000000008008f160                D_8008F160 = 0x8008f160
                0x000000008008f164                D_8008F164 = 0x8008f164
                0x000000008008f168                D_8008F168 = 0x8008f168
                0x000000008008f16c                D_8008F16C = 0x8008f16c
                0x000000008008f170                D_8008F170 = 0x8008f170
                0x000000008008f174                D_8008F174 = 0x8008f174
                0x000000008008f178                D_8008F178 = 0x8008f178
                0x000000008008f17c                D_8008F17C = 0x8008f17c
                0x000000008008f180                D_8008F180 = 0x8008f180
                0x000000008008f194                D_8008F194 = 0x8008f194
                0x000000008008f1a8                D_8008F1A8 = 0x8008f1a8
                0x000000008008f1c0                D_8008F1C0 = 0x8008f1c0
                0x000000008008f1c4                D_8008F1C4 = 0x8008f1c4
                0x000000008008f1c8                D_8008F1C8 = 0x8008f1c8
                0x000000008008f1cc                D_8008F1CC = 0x8008f1cc
                0x000000008008f1d0                D_8008F1D0 = 0x8008f1d0
                0x000000008008f1d4                D_8008F1D4 = 0x8008f1d4
                0x000000008008f1d8                D_8008F1D8 = 0x8008f1d8
                0x000000008008f1dc                D_8008F1DC = 0x8008f1dc
                0x000000008008f1e0                D_8008F1E0 = 0x8008f1e0
                0x000000008008f1e8                D_8008F1E8 = 0x8008f1e8
                0x000000008008f1ec                D_8008F1EC = 0x8008f1ec
                0x000000008008f1f0                D_8008F1F0 = 0x8008f1f0
                0x000000008008f1f8                D_8008F1F8 = 0x8008f1f8
                0x000000008008f200                D_8008F200 = 0x8008f200
                0x000000008008f204                D_8008F204 = 0x8008f204
                0x000000008008f208                D_8008F208 = 0x8008f208
                0x000000008008f214                D_8008F214 = 0x8008f214
                0x000000008008f220                D_8008F220 = 0x8008f220
                0x000000008008f224                D_8008F224 = 0x8008f224
                0x000000008008f228                D_8008F228 = 0x8008f228
                0x000000008008f22c                D_8008F22C = 0x8008f22c
                0x000000008008f230                D_8008F230 = 0x8008f230
                0x000000008008f234                D_8008F234 = 0x8008f234
                0x000000008008f240                D_8008F240 = 0x8008f240
                0x000000008008f244                D_8008F244 = 0x8008f244
                0x000000008008f248                D_8008F248 = 0x8008f248
                0x000000008008f24c                D_8008F24C = 0x8008f24c
                0x000000008008f250                D_8008F250 = 0x8008f250
                0x000000008008f254                D_8008F254 = 0x8008f254
                0x000000008008f258                D_8008F258 = 0x8008f258
                0x000000008008f25c                D_8008F25C = 0x8008f25c
                0x000000008008f260                D_8008F260 = 0x8008f260
                0x000000008008f270                D_8008F270 = 0x8008f270
                0x000000008008f274                D_8008F274 = 0x8008f274
                0x000000008008f278                D_8008F278 = 0x8008f278
                0x000000008008f27c                D_8008F27C = 0x8008f27c
                0x000000008008f280                D_8008F280 = 0x8008f280
                0x000000008008f284                D_8008F284 = 0x8008f284
                0x000000008008f290                D_8008F290 = 0x8008f290
                0x000000008008f294                D_8008F294 = 0x8008f294
                0x000000008008f298                D_8008F298 = 0x8008f298
                0x000000008008f29c                D_8008F29C = 0x8008f29c
                0x000000008008f2a0                D_8008F2A0 = 0x8008f2a0
                0x000000008008f3d8                D_8008F3D8 = 0x8008f3d8
                0x000000008008f5dc                D_8008F5DC = 0x8008f5dc
                0x000000008008f5e4                D_8008F5E4 = 0x8008f5e4
                0x000000008008f5f0                D_8008F5F0 = 0x8008f5f0
                0x000000008008f608                D_8008F608 = 0x8008f608
                0x000000008008f620                D_8008F620 = 0x8008f620
                0x000000008008f62c                D_8008F62C = 0x8008f62c
                0x000000008008f640                D_8008F640 = 0x8008f640
                0x000000008008f644                D_8008F644 = 0x8008f644
                0x000000008008f6c0                D_8008F6C0 = 0x8008f6c0
                0x000000008008f6d8                D_8008F6D8 = 0x8008f6d8
                0x000000008008f700                D_8008F700 = 0x8008f700
                0x000000008008f728                D_8008F728 = 0x8008f728
                0x000000008008f7a4                D_8008F7A4 = 0x8008f7a4
                0x000000008008f820                D_8008F820 = 0x8008f820
                0x000000008008f910                D_8008F910 = 0x8008f910
                0x000000008008fa00                D_8008FA00 = 0x8008fa00
                0x000000008008fa04                D_8008FA04 = 0x8008fa04
                0x000000008008fa08                D_8008FA08 = 0x8008fa08
                0x000000008008fa28                D_8008FA28 = 0x8008fa28
                0x000000008008fa30                D_8008FA30 = 0x8008fa30
                0x000000008008fa70                D_8008FA70 = 0x8008fa70
                0x000000008008fa80                D_8008FA80 = 0x8008fa80
                0x000000008008fa84                D_8008FA84 = 0x8008fa84
                0x000000008008fa88                D_8008FA88 = 0x8008fa88
                0x000000008008fa8c                D_8008FA8C = 0x8008fa8c
                0x000000008008fa90                D_8008FA90 = 0x8008fa90
                0x000000008008fa94                D_8008FA94 = 0x8008fa94
                0x000000008008fa98                D_8008FA98 = 0x8008fa98
                0x000000008008fa9c                D_8008FA9C = 0x8008fa9c
                0x000000008008faa0                D_8008FAA0 = 0x8008faa0
                0x000000008008faa4                D_8008FAA4 = 0x8008faa4
                0x000000008008faa8                D_8008FAA8 = 0x8008faa8
                0x000000008008faac                D_8008FAAC = 0x8008faac
                0x000000008008fab0                D_8008FAB0 = 0x8008fab0
                0x000000008008fab4                D_8008FAB4 = 0x8008fab4
                0x000000008008fab8                D_8008FAB8 = 0x8008fab8
                0x000000008008fabc                D_8008FABC = 0x8008fabc
                0x000000008008fac0                D_8008FAC0 = 0x8008fac0
                0x000000008008fac4                D_8008FAC4 = 0x8008fac4
                0x000000008008fae0                D_8008FAE0 = 0x8008fae0
                0x000000008008faea                D_8008FAEA = 0x8008faea
                0x000000008008faee                D_8008FAEE = 0x8008faee
                0x000000008008fb08                D_8008FB08 = 0x8008fb08
                0x0000000080090000                D_80090000 = 0x80090000
                0x0000000080092c10                D_80092C10 = 0x80092c10
                0x0000000080092c30                D_80092C30 = 0x80092c30
                0x0000000080092c52                D_80092C52 = 0x80092c52
                0x0000000080092c72                D_80092C72 = 0x80092c72
                0x0000000080092ce8                D_80092CE8 = 0x80092ce8
                0x0000000080092d0c                D_80092D0C = 0x80092d0c
                0x0000000080092d10                D_80092D10 = 0x80092d10
                0x0000000080092d14                D_80092D14 = 0x80092d14
                0x0000000080092d18                D_80092D18 = 0x80092d18
                0x0000000080092d24                D_80092D24 = 0x80092d24
                0x0000000080092d28                D_80092D28 = 0x80092d28
                0x0000000080092d2c                D_80092D2C = 0x80092d2c
                0x0000000080092d30                D_80092D30 = 0x80092d30
                0x0000000080092d32                D_80092D32 = 0x80092d32
                0x0000000080092d34                D_80092D34 = 0x80092d34
                0x0000000080092d40                D_80092D40 = 0x80092d40
                0x0000000080092d44                D_80092D44 = 0x80092d44
                0x0000000080092d48                D_80092D48 = 0x80092d48
                0x0000000080092d4c                D_80092D4C = 0x80092d4c
                0x0000000080092d50                D_80092D50 = 0x80092d50
                0x0000000080092d54                D_80092D54 = 0x80092d54
                0x0000000080092d58                D_80092D58 = 0x80092d58
                0x0000000080092d5c                D_80092D5C = 0x80092d5c
                0x0000000080092d64                D_80092D64 = 0x80092d64
                0x0000000080092db0                D_80092DB0 = 0x80092db0
                0x0000000080092db8                D_80092DB8 = 0x80092db8
                0x0000000080092dbc                D_80092DBC = 0x80092dbc
                0x0000000080092ddc                D_80092DDC = 0x80092ddc
                0x0000000080092de0                D_80092DE0 = 0x80092de0
                0x0000000080092de4                D_80092DE4 = 0x80092de4
                0x0000000080092df0                D_80092DF0 = 0x80092df0
                0x0000000080092df4                D_80092DF4 = 0x80092df4
                0x0000000080092df8                D_80092DF8 = 0x80092df8
                0x0000000080092dfc                D_80092DFC = 0x80092dfc
                0x0000000080092e00                D_80092E00 = 0x80092e00
                0x0000000080092e04                D_80092E04 = 0x80092e04
                0x0000000080092e10                D_80092E10 = 0x80092e10
                0x0000000080092e20                D_80092E20 = 0x80092e20
                0x0000000080092e3c                D_80092E3C = 0x80092e3c
                0x0000000080092e3f                D_80092E3F = 0x80092e3f
                0x0000000080092e40                alGlobals = 0x80092e40
                0x0000000080092e50                aisetnextbuf_data_0000 = 0x80092e50
                0x0000000080092e60                __osContinitialized = 0x80092e60
                0x0000000080092e70                D_80092E70 = 0x80092e70
                0x000000008009366e                D_8009366E = 0x8009366e
                0x0000000080093670                __osMotorinitialized = 0x80093670
                0x0000000080093680                D_80093680 = 0x80093680
                0x0000000080093684                D_80093684 = 0x80093684
                0x0000000080093688                D_80093688 = 0x80093688
                0x000000008009368c                D_8009368C = 0x8009368c
                0x0000000080093690                D_80093690 = 0x80093690
                0x0000000080093694                D_80093694 = 0x80093694
                0x0000000080093698                D_80093698 = 0x80093698
                0x000000008009369c                D_8009369C = 0x8009369c
                0x00000000800936a0                osViModeTable = 0x800936a0
                0x0000000080094820                D_80094820 = 0x80094820
                0x0000000080094824                D_80094824 = 0x80094824
                0x0000000080094828                osViClock = 0x80094828
                0x000000008009482c                D_8009482C = 0x8009482c
                0x0000000080094830                __OSGlobalIntMask = 0x80094830
                0x0000000080094840                __osPiDevMgr = 0x80094840
                0x0000000080094844                D_80094844 = 0x80094844
                0x0000000080094848                player_bss_003C = 0x80094848
                0x000000008009484c                D_8009484C = 0x8009484c
                0x0000000080094850                D_80094850 = 0x80094850
                0x0000000080094854                D_80094854 = 0x80094854
                0x0000000080094858                D_80094858 = 0x80094858
                0x000000008009485c                D_8009485C = 0x8009485c
                0x0000000080094860                __osCurrentHandle = 0x80094860
                0x0000000080094870                D_80094870 = 0x80094870
                0x0000000080094878                D_80094878 = 0x80094878
                0x000000008009487c                __osActiveQueue = 0x8009487c
                0x0000000080094880                D_80094880 = 0x80094880
                0x0000000080094884                D_80094884 = 0x80094884
                0x0000000080094890                D_80094890 = 0x80094890
                0x00000000800948b0                D_800948B0 = 0x800948b0
                0x0000000080094918                D_80094918 = 0x80094918
                0x00000000800949a0                D_800949A0 = 0x800949a0
                0x00000000800949c8                D_800949C8 = 0x800949c8
                0x00000000800949f0                D_800949F0 = 0x800949f0
                0x0000000080094a18                D_80094A18 = 0x80094a18
                0x0000000080094a40                D_80094A40 = 0x80094a40
                0x0000000080094b3e                D_80094B3E = 0x80094b3e
                0x0000000080094b40                D_80094B40 = 0x80094b40
                0x0000000080094b80                D_80094B80 = 0x80094b80
                0x0000000080094b90                D_80094B90 = 0x80094b90
                0x0000000080094bb4                D_80094BB4 = 0x80094bb4
                0x0000000080094be0                D_80094BE0 = 0x80094be0
                0x0000000080094bf0                D_80094BF0 = 0x80094bf0
                0x0000000080094c50                D_80094C50 = 0x80094c50
                0x0000000080094c54                D_80094C54 = 0x80094c54
                0x0000000080094c60                D_80094C60 = 0x80094c60
                0x0000000080094c70                D_80094C70 = 0x80094c70
                0x0000000080094c84                D_80094C84 = 0x80094c84
                0x0000000080094ca0                D_80094CA0 = 0x80094ca0
                0x0000000080094cf0                D_80094CF0 = 0x80094cf0
                0x0000000080094d40                D_80094D40 = 0x80094d40
                0x0000000080094d90                jtbl_80094D90_main = 0x80094d90
                0x0000000080094da4                D_80094DA4 = 0x80094da4
                0x0000000080094da8                D_80094DA8 = 0x80094da8
                0x0000000080094db0                D_80094DB0 = 0x80094db0
                0x0000000080094dc0                jtbl_80094DC0_main = 0x80094dc0
                0x0000000080094dd8                jtbl_80094DD8_main = 0x80094dd8
                0x0000000080094e00                D_80094E00 = 0x80094e00
                0x0000000080094e08                D_80094E08 = 0x80094e08
                0x0000000080094e10                D_80094E10 = 0x80094e10
                0x0000000080094e18                jtbl_80094E18_main = 0x80094e18
                0x0000000080094e30                jtbl_80094E30_main = 0x80094e30
                0x0000000080094e60                jtbl_80094E60_main = 0x80094e60
                0x0000000080094ec0                jtbl_80094EC0_main = 0x80094ec0
                0x0000000080094f10                jtbl_80094F10_main = 0x80094f10
                0x00000000800950c8                jtbl_800950C8_main = 0x800950c8
                0x0000000080095104                D_80095104 = 0x80095104
                0x0000000080095108                D_80095108 = 0x80095108
                0x0000000080095110                D_80095110 = 0x80095110
                0x0000000080095118                D_80095118 = 0x80095118
                0x0000000080095120                D_80095120 = 0x80095120
                0x0000000080095128                D_80095128 = 0x80095128
                0x0000000080095130                D_80095130 = 0x80095130
                0x0000000080095138                D_80095138 = 0x80095138
                0x0000000080095140                D_80095140 = 0x80095140
                0x0000000080095148                D_80095148 = 0x80095148
                0x0000000080095150                D_80095150 = 0x80095150
                0x0000000080095158                D_80095158 = 0x80095158
                0x0000000080095160                D_80095160 = 0x80095160
                0x0000000080095168                D_80095168 = 0x80095168
                0x0000000080095170                D_80095170 = 0x80095170
                0x0000000080095178                D_80095178 = 0x80095178
                0x0000000080095180                D_80095180 = 0x80095180
                0x0000000080095188                D_80095188 = 0x80095188
                0x0000000080095190                jtbl_80095190_main = 0x80095190
                0x00000000800951b4                D_800951B4 = 0x800951b4
                0x00000000800951b8                jtbl_800951B8_main = 0x800951b8
                0x00000000800951dc                jtbl_800951DC_main = 0x800951dc
                0x0000000080095200                D_80095200 = 0x80095200
                0x0000000080095210                D_80095210 = 0x80095210
                0x0000000080095218                D_80095218 = 0x80095218
                0x0000000080095220                D_80095220 = 0x80095220
                0x0000000080095224                D_80095224 = 0x80095224
                0x0000000080095228                D_80095228 = 0x80095228
                0x000000008009522c                D_8009522C = 0x8009522c
                0x0000000080095230                D_80095230 = 0x80095230
                0x0000000080095238                D_80095238 = 0x80095238
                0x0000000080095240                D_80095240 = 0x80095240
                0x0000000080095248                D_80095248 = 0x80095248
                0x0000000080095250                D_80095250 = 0x80095250
                0x0000000080095254                D_80095254 = 0x80095254
                0x0000000080095258                D_80095258 = 0x80095258
                0x0000000080095260                D_80095260 = 0x80095260
                0x0000000080095268                D_80095268 = 0x80095268
                0x0000000080095270                D_80095270 = 0x80095270
                0x0000000080095278                D_80095278 = 0x80095278
                0x0000000080095280                D_80095280 = 0x80095280
                0x0000000080095288                D_80095288 = 0x80095288
                0x0000000080095290                D_80095290 = 0x80095290
                0x0000000080095298                D_80095298 = 0x80095298
                0x00000000800952a0                D_800952A0 = 0x800952a0
                0x00000000800952b0                D_800952B0 = 0x800952b0
                0x00000000800952c0                D_800952C0 = 0x800952c0
                0x00000000800952c8                D_800952C8 = 0x800952c8
                0x00000000800952d0                D_800952D0 = 0x800952d0
                0x00000000800952d8                D_800952D8 = 0x800952d8
                0x00000000800952e0                D_800952E0 = 0x800952e0
                0x00000000800952e8                D_800952E8 = 0x800952e8
                0x00000000800952f0                D_800952F0 = 0x800952f0
                0x00000000800952f8                D_800952F8 = 0x800952f8
                0x0000000080095300                D_80095300 = 0x80095300
                0x0000000080095308                D_80095308 = 0x80095308
                0x0000000080095310                D_80095310 = 0x80095310
                0x0000000080095318                D_80095318 = 0x80095318
                0x0000000080095320                D_80095320 = 0x80095320
                0x0000000080095328                D_80095328 = 0x80095328
                0x0000000080095330                D_80095330 = 0x80095330
                0x0000000080095338                D_80095338 = 0x80095338
                0x0000000080095340                D_80095340 = 0x80095340
                0x0000000080095348                D_80095348 = 0x80095348
                0x0000000080095350                D_80095350 = 0x80095350
                0x0000000080095358                D_80095358 = 0x80095358
                0x0000000080095360                D_80095360 = 0x80095360
                0x0000000080095368                D_80095368 = 0x80095368
                0x0000000080095370                D_80095370 = 0x80095370
                0x0000000080095378                D_80095378 = 0x80095378
                0x0000000080095380                D_80095380 = 0x80095380
                0x0000000080095388                D_80095388 = 0x80095388
                0x0000000080095390                D_80095390 = 0x80095390
                0x0000000080095398                D_80095398 = 0x80095398
                0x00000000800953a0                D_800953A0 = 0x800953a0
                0x00000000800953a8                D_800953A8 = 0x800953a8
                0x00000000800953b0                D_800953B0 = 0x800953b0
                0x00000000800953b8                D_800953B8 = 0x800953b8
                0x00000000800953c0                D_800953C0 = 0x800953c0
                0x00000000800953c8                D_800953C8 = 0x800953c8
                0x00000000800953d0                D_800953D0 = 0x800953d0
                0x00000000800953d8                D_800953D8 = 0x800953d8
                0x00000000800953e0                D_800953E0 = 0x800953e0
                0x00000000800953e8                D_800953E8 = 0x800953e8
                0x00000000800953f0                D_800953F0 = 0x800953f0
                0x00000000800953f8                D_800953F8 = 0x800953f8
                0x0000000080095400                D_80095400 = 0x80095400
                0x0000000080095410                D_80095410 = 0x80095410
                0x0000000080095418                D_80095418 = 0x80095418
                0x0000000080095420                D_80095420 = 0x80095420
                0x0000000080095428                D_80095428 = 0x80095428
                0x000000008009542c                D_8009542C = 0x8009542c
                0x0000000080095430                D_80095430 = 0x80095430
                0x0000000080095434                D_80095434 = 0x80095434
                0x0000000080095438                D_80095438 = 0x80095438
                0x000000008009543c                D_8009543C = 0x8009543c
                0x0000000080095440                D_80095440 = 0x80095440
                0x0000000080095444                D_80095444 = 0x80095444
                0x0000000080095448                D_80095448 = 0x80095448
                0x000000008009544c                D_8009544C = 0x8009544c
                0x0000000080095450                D_80095450 = 0x80095450
                0x0000000080095454                D_80095454 = 0x80095454
                0x0000000080095458                D_80095458 = 0x80095458
                0x000000008009545c                D_8009545C = 0x8009545c
                0x0000000080095460                D_80095460 = 0x80095460
                0x0000000080095464                D_80095464 = 0x80095464
                0x0000000080095468                D_80095468 = 0x80095468
                0x000000008009546c                D_8009546C = 0x8009546c
                0x0000000080095470                D_80095470 = 0x80095470
                0x0000000080095474                D_80095474 = 0x80095474
                0x0000000080095478                D_80095478 = 0x80095478
                0x000000008009547c                D_8009547C = 0x8009547c
                0x0000000080095480                D_80095480 = 0x80095480
                0x0000000080095484                D_80095484 = 0x80095484
                0x0000000080095488                D_80095488 = 0x80095488
                0x000000008009548c                D_8009548C = 0x8009548c
                0x0000000080095490                D_80095490 = 0x80095490
                0x0000000080095494                D_80095494 = 0x80095494
                0x0000000080095500                D_80095500 = 0x80095500
                0x0000000080095508                D_80095508 = 0x80095508
                0x0000000080095510                D_80095510 = 0x80095510
                0x0000000080095524                D_80095524 = 0x80095524
                0x0000000080095538                D_80095538 = 0x80095538
                0x0000000080095560                D_80095560 = 0x80095560
                0x0000000080095568                jtbl_80095568_main = 0x80095568
                0x0000000080095590                D_80095590 = 0x80095590
                0x0000000080096290                D_80096290 = 0x80096290
                0x00000000800962a0                D_800962A0 = 0x800962a0
                0x00000000800962a8                D_800962A8 = 0x800962a8
                0x00000000800962b0                D_800962B0 = 0x800962b0
                0x00000000800962d0                D_800962D0 = 0x800962d0
                0x00000000800962d4                D_800962D4 = 0x800962d4
                0x00000000800962d8                D_800962D8 = 0x800962d8
                0x00000000800962e0                D_800962E0 = 0x800962e0
                0x00000000800962e8                D_800962E8 = 0x800962e8
                0x00000000800962ec                D_800962EC = 0x800962ec
                0x00000000800962f0                D_800962F0 = 0x800962f0
                0x00000000800962f4                D_800962F4 = 0x800962f4
                0x00000000800962f8                D_800962F8 = 0x800962f8
                0x00000000800962fc                D_800962FC = 0x800962fc
                0x0000000080096300                D_80096300 = 0x80096300
                0x0000000080096308                D_80096308 = 0x80096308
                0x0000000080096310                D_80096310 = 0x80096310
                0x0000000080096318                D_80096318 = 0x80096318
                0x0000000080096320                D_80096320 = 0x80096320
                0x0000000080096328                D_80096328 = 0x80096328
                0x0000000080096330                D_80096330 = 0x80096330
                0x0000000080096338                D_80096338 = 0x80096338
                0x0000000080096340                D_80096340 = 0x80096340
                0x0000000080096348                D_80096348 = 0x80096348
                0x0000000080096350                D_80096350 = 0x80096350
                0x0000000080096360                D_80096360 = 0x80096360
                0x0000000080096368                D_80096368 = 0x80096368
                0x0000000080096370                D_80096370 = 0x80096370
                0x0000000080096378                D_80096378 = 0x80096378
                0x0000000080096380                D_80096380 = 0x80096380
                0x0000000080096388                D_80096388 = 0x80096388
                0x0000000080096390                D_80096390 = 0x80096390
                0x0000000080096398                D_80096398 = 0x80096398
                0x00000000800963a0                D_800963A0 = 0x800963a0
                0x00000000800963a8                D_800963A8 = 0x800963a8
                0x00000000800963b0                D_800963B0 = 0x800963b0
                0x00000000800963b8                D_800963B8 = 0x800963b8
                0x00000000800963c0                D_800963C0 = 0x800963c0
                0x00000000800963c8                D_800963C8 = 0x800963c8
                0x00000000800963d0                D_800963D0 = 0x800963d0
                0x00000000800963d8                D_800963D8 = 0x800963d8
                0x00000000800963e0                D_800963E0 = 0x800963e0
                0x00000000800963e8                D_800963E8 = 0x800963e8
                0x00000000800963f0                D_800963F0 = 0x800963f0
                0x00000000800963f8                D_800963F8 = 0x800963f8
                0x0000000080096400                D_80096400 = 0x80096400
                0x0000000080096410                D_80096410 = 0x80096410
                0x0000000080096418                D_80096418 = 0x80096418
                0x0000000080096420                D_80096420 = 0x80096420
                0x0000000080096428                D_80096428 = 0x80096428
                0x0000000080096430                D_80096430 = 0x80096430
                0x0000000080096438                D_80096438 = 0x80096438
                0x0000000080096440                D_80096440 = 0x80096440
                0x0000000080096448                D_80096448 = 0x80096448
                0x0000000080096450                D_80096450 = 0x80096450
                0x0000000080096458                D_80096458 = 0x80096458
                0x0000000080096460                D_80096460 = 0x80096460
                0x0000000080096468                D_80096468 = 0x80096468
                0x0000000080096470                D_80096470 = 0x80096470
                0x0000000080096478                D_80096478 = 0x80096478
                0x0000000080096480                D_80096480 = 0x80096480
                0x0000000080096488                D_80096488 = 0x80096488
                0x0000000080096490                D_80096490 = 0x80096490
                0x000000008009649c                D_8009649C = 0x8009649c
                0x00000000800964a8                D_800964A8 = 0x800964a8
                0x00000000800964b0                D_800964B0 = 0x800964b0
                0x00000000800964b8                D_800964B8 = 0x800964b8
                0x00000000800964c0                D_800964C0 = 0x800964c0
                0x00000000800964c8                D_800964C8 = 0x800964c8
                0x00000000800964d0                D_800964D0 = 0x800964d0
                0x00000000800964d8                D_800964D8 = 0x800964d8
                0x00000000800964e0                D_800964E0 = 0x800964e0
                0x00000000800964e8                D_800964E8 = 0x800964e8
                0x00000000800964f0                D_800964F0 = 0x800964f0
                0x00000000800964f8                D_800964F8 = 0x800964f8
                0x0000000080096500                D_80096500 = 0x80096500
                0x0000000080096510                D_80096510 = 0x80096510
                0x0000000080096660                D_80096660 = 0x80096660
                0x0000000080096990                D_80096990 = 0x80096990
                0x0000000080096994                D_80096994 = 0x80096994
                0x0000000080096998                D_80096998 = 0x80096998
                0x000000008009699c                D_8009699C = 0x8009699c
                0x00000000800969a0                D_800969A0 = 0x800969a0
                0x00000000800969a8                D_800969A8 = 0x800969a8
                0x00000000800969b0                D_800969B0 = 0x800969b0
                0x00000000800969c0                jtbl_800969C0_main = 0x800969c0
                0x00000000800969f0                jtbl_800969F0_main = 0x800969f0
                0x0000000080096a10                jtbl_80096A10_main = 0x80096a10
                0x0000000080096a2c                D_80096A2C = 0x80096a2c
                0x0000000080096a30                D_80096A30 = 0x80096a30
                0x0000000080096a34                D_80096A34 = 0x80096a34
                0x0000000080096a38                D_80096A38 = 0x80096a38
                0x0000000080096a3c                jtbl_80096A3C_main = 0x80096a3c
                0x0000000080096a6c                jtbl_80096A6C_main = 0x80096a6c
                0x0000000080096a80                jtbl_80096A80_main = 0x80096a80
                0x0000000080096ab0                D_80096AB0 = 0x80096ab0
                0x0000000080096ab4                D_80096AB4 = 0x80096ab4
                0x0000000080096ab8                D_80096AB8 = 0x80096ab8
                0x0000000080096abc                D_80096ABC = 0x80096abc
                0x0000000080096ac0                D_80096AC0 = 0x80096ac0
                0x0000000080096ac4                D_80096AC4 = 0x80096ac4
                0x0000000080096ac8                D_80096AC8 = 0x80096ac8
                0x0000000080096acc                D_80096ACC = 0x80096acc
                0x0000000080096ad0                jtbl_80096AD0_main = 0x80096ad0
                0x0000000080096b00                jtbl_80096B00_main = 0x80096b00
                0x0000000080096b14                jtbl_80096B14_main = 0x80096b14
                0x0000000080096b50                D_80096B50 = 0x80096b50
                0x0000000080096ba0                D_80096BA0 = 0x80096ba0
                0x0000000080096ba8                D_80096BA8 = 0x80096ba8
                0x0000000080096bb4                D_80096BB4 = 0x80096bb4
                0x0000000080096bc0                D_80096BC0 = 0x80096bc0
                0x0000000080096bc8                D_80096BC8 = 0x80096bc8
                0x0000000080096be4                D_80096BE4 = 0x80096be4
                0x0000000080096bf4                D_80096BF4 = 0x80096bf4
                0x0000000080096c00                D_80096C00 = 0x80096c00
                0x0000000080096c08                D_80096C08 = 0x80096c08
                0x0000000080096c18                D_80096C18 = 0x80096c18
                0x0000000080096c28                D_80096C28 = 0x80096c28
                0x0000000080096c34                D_80096C34 = 0x80096c34
                0x0000000080096c3c                D_80096C3C = 0x80096c3c
                0x0000000080096c44                D_80096C44 = 0x80096c44
                0x0000000080096c54                D_80096C54 = 0x80096c54
                0x0000000080096c60                D_80096C60 = 0x80096c60
                0x0000000080096c6c                D_80096C6C = 0x80096c6c
                0x0000000080096c78                D_80096C78 = 0x80096c78
                0x0000000080096c84                D_80096C84 = 0x80096c84
                0x0000000080096c94                D_80096C94 = 0x80096c94
                0x0000000080096c98                D_80096C98 = 0x80096c98
                0x0000000080096ca4                D_80096CA4 = 0x80096ca4
                0x0000000080096ca8                D_80096CA8 = 0x80096ca8
                0x0000000080096cc4                D_80096CC4 = 0x80096cc4
                0x0000000080096cd0                D_80096CD0 = 0x80096cd0
                0x0000000080096cd8                D_80096CD8 = 0x80096cd8
                0x0000000080096ce0                jtbl_80096CE0_main = 0x80096ce0
                0x0000000080096d10                D_80096D10 = 0x80096d10
                0x0000000080096d18                D_80096D18 = 0x80096d18
                0x0000000080096d24                D_80096D24 = 0x80096d24
                0x0000000080096d2c                D_80096D2C = 0x80096d2c
                0x0000000080096d84                D_80096D84 = 0x80096d84
                0x0000000080096d8c                D_80096D8C = 0x80096d8c
                0x0000000080096d90                D_80096D90 = 0x80096d90
                0x0000000080096d98                D_80096D98 = 0x80096d98
                0x0000000080096da0                D_80096DA0 = 0x80096da0
                0x0000000080096db0                D_80096DB0 = 0x80096db0
                0x0000000080096dbc                D_80096DBC = 0x80096dbc
                0x0000000080096dc4                D_80096DC4 = 0x80096dc4
                0x0000000080096dc8                D_80096DC8 = 0x80096dc8
                0x0000000080096dd0                D_80096DD0 = 0x80096dd0
                0x0000000080096de0                D_80096DE0 = 0x80096de0
                0x0000000080096dec                D_80096DEC = 0x80096dec
                0x0000000080096dfc                D_80096DFC = 0x80096dfc
                0x0000000080096e08                D_80096E08 = 0x80096e08
                0x0000000080096e18                D_80096E18 = 0x80096e18
                0x0000000080096e24                D_80096E24 = 0x80096e24
                0x0000000080096e2c                D_80096E2C = 0x80096e2c
                0x0000000080096e3c                D_80096E3C = 0x80096e3c
                0x0000000080096e48                D_80096E48 = 0x80096e48
                0x0000000080096e4c                D_80096E4C = 0x80096e4c
                0x0000000080096e60                D_80096E60 = 0x80096e60
                0x0000000080096e74                D_80096E74 = 0x80096e74
                0x0000000080096e90                jtbl_80096E90_main = 0x80096e90
                0x0000000080096ec0                jtbl_80096EC0_main = 0x80096ec0
                0x0000000080096ee0                D_80096EE0 = 0x80096ee0
                0x0000000080096ef0                jtbl_80096EF0_main = 0x80096ef0
                0x0000000080096f44                jtbl_80096F44_main = 0x80096f44
                0x0000000080096f98                jtbl_80096F98_main = 0x80096f98
                0x0000000080097028                D_80097028 = 0x80097028
                0x0000000080097051                D_80097051 = 0x80097051
                0x00000000800970e4                jtbl_800970E4_main = 0x800970e4
                0x0000000080097110                D_80097110 = 0x80097110
                0x0000000080097130                D_80097130 = 0x80097130
                0x0000000080097188                D_80097188 = 0x80097188
                0x000000008009718c                D_8009718C = 0x8009718c
                0x0000000080097190                jtbl_80097190_main = 0x80097190
                0x00000000800971a8                jtbl_800971A8_main = 0x800971a8
                0x00000000800971d0                D_800971D0 = 0x800971d0
                0x00000000800971d4                D_800971D4 = 0x800971d4
                0x00000000800971d8                D_800971D8 = 0x800971d8
                0x00000000800971dc                D_800971DC = 0x800971dc
                0x00000000800971e0                D_800971E0 = 0x800971e0
                0x00000000800971e8                D_800971E8 = 0x800971e8
                0x00000000800971f0                jtbl_800971F0_main = 0x800971f0
                0x0000000080097220                D_80097220 = 0x80097220
                0x0000000080097228                D_80097228 = 0x80097228
                0x0000000080097230                D_80097230 = 0x80097230
                0x0000000080097234                D_80097234 = 0x80097234
                0x0000000080097238                D_80097238 = 0x80097238
                0x0000000080097240                D_80097240 = 0x80097240
                0x0000000080097250                D_80097250 = 0x80097250
                0x0000000080097254                D_80097254 = 0x80097254
                0x0000000080097258                D_80097258 = 0x80097258
                0x000000008009725c                D_8009725C = 0x8009725c
                0x0000000080097264                D_80097264 = 0x80097264
                0x000000008009726c                D_8009726C = 0x8009726c
                0x0000000080097274                D_80097274 = 0x80097274
                0x000000008009727c                D_8009727C = 0x8009727c
                0x0000000080097288                D_80097288 = 0x80097288
                0x0000000080097294                D_80097294 = 0x80097294
                0x00000000800972a0                jtbl_800972A0_main = 0x800972a0
                0x0000000080097310                D_80097310 = 0x80097310
                0x0000000080097314                D_80097314 = 0x80097314
                0x0000000080097318                jtbl_80097318_main = 0x80097318
                0x0000000080097330                D_80097330 = 0x80097330
                0x000000008009733c                D_8009733C = 0x8009733c
                0x000000008009734c                D_8009734C = 0x8009734c
                0x000000008009735c                D_8009735C = 0x8009735c
                0x0000000080097368                D_80097368 = 0x80097368
                0x0000000080097378                D_80097378 = 0x80097378
                0x0000000080097384                D_80097384 = 0x80097384
                0x000000008009738c                D_8009738C = 0x8009738c
                0x0000000080097398                D_80097398 = 0x80097398
                0x00000000800973a0                D_800973A0 = 0x800973a0
                0x00000000800973a8                D_800973A8 = 0x800973a8
                0x00000000800973b0                D_800973B0 = 0x800973b0
                0x00000000800973b8                D_800973B8 = 0x800973b8
                0x00000000800973c0                D_800973C0 = 0x800973c0
                0x00000000800973c4                D_800973C4 = 0x800973c4
                0x00000000800973c8                D_800973C8 = 0x800973c8
                0x00000000800973cc                D_800973CC = 0x800973cc
                0x00000000800973d0                D_800973D0 = 0x800973d0
                0x00000000800973e0                D_800973E0 = 0x800973e0
                0x0000000080097428                D_80097428 = 0x80097428
                0x0000000080097440                D_80097440 = 0x80097440
                0x000000008009744c                D_8009744C = 0x8009744c
                0x0000000080097458                jtbl_80097458_main = 0x80097458
                0x0000000080097470                jtbl_80097470_main = 0x80097470
                0x0000000080097488                jtbl_80097488_main = 0x80097488
                0x00000000800974a0                jtbl_800974A0_main = 0x800974a0
                0x00000000800974b8                jtbl_800974B8_main = 0x800974b8
                0x00000000800974d0                jtbl_800974D0_main = 0x800974d0
                0x00000000800974f0                D_800974F0 = 0x800974f0
                0x0000000080097504                D_80097504 = 0x80097504
                0x0000000080097514                jtbl_80097514_main = 0x80097514
                0x0000000080097530                jtbl_80097530_main = 0x80097530
                0x0000000080097550                D_80097550 = 0x80097550
                0x0000000080097558                D_80097558 = 0x80097558
                0x0000000080097564                D_80097564 = 0x80097564
                0x0000000080097568                D_80097568 = 0x80097568
                0x0000000080097578                D_80097578 = 0x80097578
                0x0000000080097584                D_80097584 = 0x80097584
                0x0000000080097594                D_80097594 = 0x80097594
                0x00000000800975a0                D_800975A0 = 0x800975a0
                0x00000000800975a8                D_800975A8 = 0x800975a8
                0x00000000800975b0                D_800975B0 = 0x800975b0
                0x00000000800975b8                D_800975B8 = 0x800975b8
                0x00000000800975c0                D_800975C0 = 0x800975c0
                0x00000000800975d0                D_800975D0 = 0x800975d0
                0x00000000800975dc                D_800975DC = 0x800975dc
                0x00000000800975ec                D_800975EC = 0x800975ec
                0x00000000800975f8                D_800975F8 = 0x800975f8
                0x0000000080097608                D_80097608 = 0x80097608
                0x0000000080097614                D_80097614 = 0x80097614
                0x0000000080097624                D_80097624 = 0x80097624
                0x0000000080097630                jtbl_80097630_main = 0x80097630
                0x0000000080097648                D_80097648 = 0x80097648
                0x000000008009764c                D_8009764C = 0x8009764c
                0x0000000080097650                D_80097650 = 0x80097650
                0x0000000080097668                jtbl_80097668_main = 0x80097668
                0x0000000080097680                jtbl_80097680_main = 0x80097680
                0x0000000080097698                D_80097698 = 0x80097698
                0x00000000800976a0                D_800976A0 = 0x800976a0
                0x00000000800976a8                D_800976A8 = 0x800976a8
                0x00000000800976ac                jtbl_800976AC_main = 0x800976ac
                0x00000000800976d4                jtbl_800976D4_main = 0x800976d4
                0x0000000080097700                D_80097700 = 0x80097700
                0x0000000080097708                D_80097708 = 0x80097708
                0x0000000080097710                D_80097710 = 0x80097710
                0x0000000080097714                D_80097714 = 0x80097714
                0x0000000080097718                D_80097718 = 0x80097718
                0x0000000080097720                D_80097720 = 0x80097720
                0x0000000080097728                D_80097728 = 0x80097728
                0x000000008009772c                D_8009772C = 0x8009772c
                0x0000000080097730                D_80097730 = 0x80097730
                0x0000000080097734                D_80097734 = 0x80097734
                0x0000000080097738                D_80097738 = 0x80097738
                0x000000008009773c                D_8009773C = 0x8009773c
                0x0000000080097740                D_80097740 = 0x80097740
                0x0000000080097744                D_80097744 = 0x80097744
                0x0000000080097748                D_80097748 = 0x80097748
                0x000000008009774c                D_8009774C = 0x8009774c
                0x0000000080097750                D_80097750 = 0x80097750
                0x0000000080097754                D_80097754 = 0x80097754
                0x0000000080097758                D_80097758 = 0x80097758
                0x000000008009775c                D_8009775C = 0x8009775c
                0x0000000080097760                D_80097760 = 0x80097760
                0x0000000080097764                D_80097764 = 0x80097764
                0x0000000080097768                D_80097768 = 0x80097768
                0x000000008009776c                D_8009776C = 0x8009776c
                0x0000000080097770                D_80097770 = 0x80097770
                0x0000000080097774                D_80097774 = 0x80097774
                0x0000000080097778                D_80097778 = 0x80097778
                0x000000008009777c                D_8009777C = 0x8009777c
                0x0000000080097780                D_80097780 = 0x80097780
                0x0000000080097784                D_80097784 = 0x80097784
                0x0000000080097788                D_80097788 = 0x80097788
                0x000000008009778c                D_8009778C = 0x8009778c
                0x0000000080097790                D_80097790 = 0x80097790
                0x0000000080097794                D_80097794 = 0x80097794
                0x0000000080097798                D_80097798 = 0x80097798
                0x000000008009779c                D_8009779C = 0x8009779c
                0x00000000800977a0                D_800977A0 = 0x800977a0
                0x00000000800977a4                D_800977A4 = 0x800977a4
                0x00000000800977a8                jtbl_800977A8_main = 0x800977a8
                0x00000000800977d0                jtbl_800977D0_main = 0x800977d0
                0x0000000080097800                jtbl_80097800_main = 0x80097800
                0x0000000080097820                D_80097820 = 0x80097820
                0x0000000080097824                D_80097824 = 0x80097824
                0x0000000080097834                D_80097834 = 0x80097834
                0x0000000080097844                D_80097844 = 0x80097844
                0x0000000080097854                D_80097854 = 0x80097854
                0x0000000080097858                jtbl_80097858_main = 0x80097858
                0x0000000080097870                D_80097870 = 0x80097870
                0x0000000080097878                jtbl_80097878_main = 0x80097878
                0x0000000080097890                D_80097890 = 0x80097890
                0x0000000080097894                D_80097894 = 0x80097894
                0x00000000800978a0                D_800978A0 = 0x800978a0
                0x00000000800978b0                D_800978B0 = 0x800978b0
                0x00000000800978c0                D_800978C0 = 0x800978c0
                0x00000000800978c4                jtbl_800978C4_main = 0x800978c4
                0x00000000800978e0                D_800978E0 = 0x800978e0
                0x00000000800978ec                jtbl_800978EC_main = 0x800978ec
                0x0000000080097910                jtbl_80097910_main = 0x80097910
                0x0000000080097980                D_80097980 = 0x80097980
                0x0000000080097988                D_80097988 = 0x80097988
                0x0000000080097989                D_80097989 = 0x80097989
                0x000000008009798c                D_8009798C = 0x8009798c
                0x000000008009798e                D_8009798E = 0x8009798e
                0x0000000080097990                D_80097990 = 0x80097990
                0x0000000080097992                D_80097992 = 0x80097992
                0x0000000080097994                D_80097994 = 0x80097994
                0x0000000080097996                D_80097996 = 0x80097996
                0x0000000080097998                D_80097998 = 0x80097998
                0x000000008009799a                D_8009799A = 0x8009799a
                0x000000008009799c                D_8009799C = 0x8009799c
                0x000000008009799e                D_8009799E = 0x8009799e
                0x00000000800979a0                D_800979A0 = 0x800979a0
                0x00000000800979a2                D_800979A2 = 0x800979a2
                0x00000000800979a4                D_800979A4 = 0x800979a4
                0x00000000800979a6                D_800979A6 = 0x800979a6
                0x00000000800979a8                D_800979A8 = 0x800979a8
                0x00000000800979aa                D_800979AA = 0x800979aa
                0x00000000800979ac                D_800979AC = 0x800979ac
                0x00000000800979ae                D_800979AE = 0x800979ae
                0x00000000800979b0                D_800979B0 = 0x800979b0
                0x00000000800979f0                jtbl_800979F0_main = 0x800979f0
                0x0000000080097a58                D_80097A58 = 0x80097a58
                0x0000000080097a5c                D_80097A5C = 0x80097a5c
                0x0000000080097a60                D_80097A60 = 0x80097a60
                0x0000000080097a64                D_80097A64 = 0x80097a64
                0x0000000080097a68                D_80097A68 = 0x80097a68
                0x0000000080097a70                D_80097A70 = 0x80097a70
                0x0000000080097a78                D_80097A78 = 0x80097a78
                0x0000000080097a7c                D_80097A7C = 0x80097a7c
                0x0000000080097a80                D_80097A80 = 0x80097a80
                0x0000000080097a88                D_80097A88 = 0x80097a88
                0x0000000080097a90                D_80097A90 = 0x80097a90
                0x0000000080097a98                D_80097A98 = 0x80097a98
                0x0000000080097aa0                D_80097AA0 = 0x80097aa0
                0x0000000080097aa8                D_80097AA8 = 0x80097aa8
                0x0000000080097ab0                D_80097AB0 = 0x80097ab0
                0x0000000080097ab8                D_80097AB8 = 0x80097ab8
                0x0000000080097ac0                D_80097AC0 = 0x80097ac0
                0x0000000080097ac8                D_80097AC8 = 0x80097ac8
                0x0000000080097ad0                D_80097AD0 = 0x80097ad0
                0x0000000080097ad8                D_80097AD8 = 0x80097ad8
                0x0000000080097ae0                D_80097AE0 = 0x80097ae0
                0x0000000080097ae8                D_80097AE8 = 0x80097ae8
                0x0000000080097af0                D_80097AF0 = 0x80097af0
                0x0000000080097af8                jtbl_80097AF8_main = 0x80097af8
                0x0000000080097b20                D_80097B20 = 0x80097b20
                0x0000000080097b28                D_80097B28 = 0x80097b28
                0x0000000080097b30                D_80097B30 = 0x80097b30
                0x0000000080097b38                D_80097B38 = 0x80097b38
                0x0000000080097b40                D_80097B40 = 0x80097b40
                0x0000000080097b48                D_80097B48 = 0x80097b48
                0x0000000080097b50                D_80097B50 = 0x80097b50
                0x0000000080097b54                D_80097B54 = 0x80097b54
                0x0000000080097b58                D_80097B58 = 0x80097b58
                0x0000000080097b60                D_80097B60 = 0x80097b60
                0x0000000080097b68                D_80097B68 = 0x80097b68
                0x0000000080097b70                D_80097B70 = 0x80097b70
                0x0000000080097b78                D_80097B78 = 0x80097b78
                0x0000000080097b80                D_80097B80 = 0x80097b80
                0x0000000080097b88                D_80097B88 = 0x80097b88
                0x0000000080097b90                D_80097B90 = 0x80097b90
                0x0000000080097b98                D_80097B98 = 0x80097b98
                0x0000000080097ba0                jtbl_80097BA0_main = 0x80097ba0
                0x0000000080097bcc                D_80097BCC = 0x80097bcc
                0x0000000080097bd0                D_80097BD0 = 0x80097bd0
                0x0000000080097bd8                D_80097BD8 = 0x80097bd8
                0x0000000080097be0                D_80097BE0 = 0x80097be0
                0x0000000080097be8                D_80097BE8 = 0x80097be8
                0x0000000080097bf0                D_80097BF0 = 0x80097bf0
                0x0000000080097bf8                D_80097BF8 = 0x80097bf8
                0x0000000080097c00                D_80097C00 = 0x80097c00
                0x0000000080097c08                D_80097C08 = 0x80097c08
                0x0000000080097c0c                D_80097C0C = 0x80097c0c
                0x0000000080097c10                D_80097C10 = 0x80097c10
                0x0000000080097c18                D_80097C18 = 0x80097c18
                0x0000000080097c20                D_80097C20 = 0x80097c20
                0x0000000080097c28                D_80097C28 = 0x80097c28
                0x0000000080097c30                D_80097C30 = 0x80097c30
                0x0000000080097c38                D_80097C38 = 0x80097c38
                0x0000000080097c40                D_80097C40 = 0x80097c40
                0x0000000080097c48                D_80097C48 = 0x80097c48
                0x0000000080097c50                D_80097C50 = 0x80097c50
                0x0000000080097c58                D_80097C58 = 0x80097c58
                0x0000000080097c60                D_80097C60 = 0x80097c60
                0x0000000080097c68                D_80097C68 = 0x80097c68
                0x0000000080097c70                D_80097C70 = 0x80097c70
                0x0000000080097c78                D_80097C78 = 0x80097c78
                0x0000000080097c7c                D_80097C7C = 0x80097c7c
                0x0000000080097c80                D_80097C80 = 0x80097c80
                0x0000000080097c88                D_80097C88 = 0x80097c88
                0x0000000080097c90                D_80097C90 = 0x80097c90
                0x0000000080097c98                D_80097C98 = 0x80097c98
                0x0000000080097ca0                D_80097CA0 = 0x80097ca0
                0x0000000080097ca8                D_80097CA8 = 0x80097ca8
                0x0000000080097cb0                D_80097CB0 = 0x80097cb0
                0x0000000080097cb4                D_80097CB4 = 0x80097cb4
                0x0000000080097cb8                D_80097CB8 = 0x80097cb8
                0x0000000080097cbc                D_80097CBC = 0x80097cbc
                0x0000000080097cc0                D_80097CC0 = 0x80097cc0
                0x0000000080097cc8                D_80097CC8 = 0x80097cc8
                0x0000000080097cd0                D_80097CD0 = 0x80097cd0
                0x0000000080097cd8                D_80097CD8 = 0x80097cd8
                0x0000000080097ce0                D_80097CE0 = 0x80097ce0
                0x0000000080097cf0                D_80097CF0 = 0x80097cf0
                0x0000000080098290                D_80098290 = 0x80098290
                0x0000000080098330                D_80098330 = 0x80098330
                0x00000000800984a4                D_800984A4 = 0x800984a4
                0x0000000080098618                D_80098618 = 0x80098618
                0x0000000080098630                D_80098630 = 0x80098630
                0x0000000080098634                D_80098634 = 0x80098634
                0x0000000080098638                D_80098638 = 0x80098638
                0x000000008009863c                D_8009863C = 0x8009863c
                0x0000000080098640                D_80098640 = 0x80098640
                0x0000000080098648                D_80098648 = 0x80098648
                0x000000008009864c                D_8009864C = 0x8009864c
                0x0000000080098650                jtbl_80098650_main = 0x80098650
                0x0000000080098664                D_80098664 = 0x80098664
                0x0000000080098668                D_80098668 = 0x80098668
                0x0000000080098670                D_80098670 = 0x80098670
                0x0000000080098678                D_80098678 = 0x80098678
                0x0000000080098680                D_80098680 = 0x80098680
                0x0000000080098688                D_80098688 = 0x80098688
                0x0000000080098690                D_80098690 = 0x80098690
                0x0000000080098698                D_80098698 = 0x80098698
                0x00000000800986a0                D_800986A0 = 0x800986a0
                0x00000000800986a8                D_800986A8 = 0x800986a8
                0x00000000800986b0                D_800986B0 = 0x800986b0
                0x00000000800986b8                D_800986B8 = 0x800986b8
                0x00000000800986c0                D_800986C0 = 0x800986c0
                0x00000000800986c8                D_800986C8 = 0x800986c8
                0x00000000800986d0                D_800986D0 = 0x800986d0
                0x00000000800986d8                D_800986D8 = 0x800986d8
                0x00000000800986e0                D_800986E0 = 0x800986e0
                0x00000000800986f0                D_800986F0 = 0x800986f0
                0x00000000800986f8                D_800986F8 = 0x800986f8
                0x0000000080098700                D_80098700 = 0x80098700
                0x0000000080098708                D_80098708 = 0x80098708
                0x0000000080098710                D_80098710 = 0x80098710
                0x0000000080098718                D_80098718 = 0x80098718
                0x0000000080098720                D_80098720 = 0x80098720
                0x0000000080098728                jtbl_80098728_main = 0x80098728
                0x0000000080098740                D_80098740 = 0x80098740
                0x0000000080098748                D_80098748 = 0x80098748
                0x0000000080098750                jtbl_80098750_main = 0x80098750
                0x0000000080098780                jtbl_80098780_main = 0x80098780
                0x00000000800987bc                D_800987BC = 0x800987bc
                0x00000000800987d4                D_800987D4 = 0x800987d4
                0x00000000800987ec                D_800987EC = 0x800987ec
                0x000000008009880c                D_8009880C = 0x8009880c
                0x0000000080098820                D_80098820 = 0x80098820
                0x0000000080098828                D_80098828 = 0x80098828
                0x0000000080098830                D_80098830 = 0x80098830
                0x0000000080098838                D_80098838 = 0x80098838
                0x0000000080098840                D_80098840 = 0x80098840
                0x0000000080098884                D_80098884 = 0x80098884
                0x00000000800988b0                jtbl_800988B0_main = 0x800988b0
                0x00000000800988d0                jtbl_800988D0_main = 0x800988d0
                0x0000000080098940                D_80098940 = 0x80098940
                0x0000000080098948                D_80098948 = 0x80098948
                0x0000000080098950                D_80098950 = 0x80098950
                0x0000000080098954                D_80098954 = 0x80098954
                0x0000000080098960                D_80098960 = 0x80098960
                0x0000000080098988                D_80098988 = 0x80098988
                0x0000000080098990                D_80098990 = 0x80098990
                0x0000000080098998                D_80098998 = 0x80098998
                0x00000000800989a0                D_800989A0 = 0x800989a0
                0x00000000800989b0                D_800989B0 = 0x800989b0
                0x00000000800989b8                jtbl_800989B8_main = 0x800989b8
                0x00000000800989e0                D_800989E0 = 0x800989e0
                0x00000000800989e8                D_800989E8 = 0x800989e8
                0x00000000800989f0                D_800989F0 = 0x800989f0
                0x00000000800989f8                D_800989F8 = 0x800989f8
                0x0000000080098a00                jtbl_80098A00_main = 0x80098a00
                0x0000000080098b84                jtbl_80098B84_main = 0x80098b84
                0x0000000080098bd8                jtbl_80098BD8_main = 0x80098bd8
                0x0000000080098c38                D_80098C38 = 0x80098c38
                0x0000000080098c40                D_80098C40 = 0x80098c40
                0x0000000080098cc0                D_80098CC0 = 0x80098cc0
                0x0000000080098ce8                D_80098CE8 = 0x80098ce8
                0x0000000080098cf0                D_80098CF0 = 0x80098cf0
                0x0000000080098cf8                D_80098CF8 = 0x80098cf8
                0x0000000080098d00                D_80098D00 = 0x80098d00
                0x0000000080098d10                D_80098D10 = 0x80098d10
                0x0000000080098d20                D_80098D20 = 0x80098d20
                0x0000000080098d30                D_80098D30 = 0x80098d30
                0x0000000080098d38                D_80098D38 = 0x80098d38
                0x0000000080098d40                D_80098D40 = 0x80098d40
                0x0000000080098d60                jtbl_80098D60_main = 0x80098d60
                0x0000000080098d90                D_80098D90 = 0x80098d90
                0x0000000080098da0                jtbl_80098DA0_main = 0x80098da0
                0x0000000080098db8                D_80098DB8 = 0x80098db8
                0x0000000080098dc0                jtbl_80098DC0_main = 0x80098dc0
                0x0000000080098de8                D_80098DE8 = 0x80098de8
                0x0000000080098df0                D_80098DF0 = 0x80098df0
                0x0000000080098e00                D_80098E00 = 0x80098e00
                0x0000000080098e08                D_80098E08 = 0x80098e08
                0x0000000080098e10                jtbl_80098E10_main = 0x80098e10
                0x0000000080098e60                D_80098E60 = 0x80098e60
                0x0000000080098e68                D_80098E68 = 0x80098e68
                0x0000000080098e70                D_80098E70 = 0x80098e70
                0x0000000080098e74                D_80098E74 = 0x80098e74
                0x0000000080098e7c                D_80098E7C = 0x80098e7c
                0x0000000080098e94                jtbl_80098E94_main = 0x80098e94
                0x0000000080098f70                jtbl_80098F70_main = 0x80098f70
                0x0000000080098f90                jtbl_80098F90_main = 0x80098f90
                0x0000000080098fb0                D_80098FB0 = 0x80098fb0
                0x0000000080098fc0                D_80098FC0 = 0x80098fc0
                0x0000000080099008                D_80099008 = 0x80099008
                0x000000008009900c                D_8009900C = 0x8009900c
                0x0000000080099010                D_80099010 = 0x80099010
                0x0000000080099018                D_80099018 = 0x80099018
                0x0000000080099020                D_80099020 = 0x80099020
                0x0000000080099108                D_80099108 = 0x80099108
                0x0000000080099160                D_80099160 = 0x80099160
                0x00000000800995c0                D_800995C0 = 0x800995c0
                0x000000008009f268                D_8009F268 = 0x8009f268
                0x000000008009fa70                D_8009FA70 = 0x8009fa70
                0x00000000800c6a10                D_800C6A10 = 0x800c6a10
                0x00000000800c7210                D_800C7210 = 0x800c7210
                0x00000000800c7a10                D_800C7A10 = 0x800c7a10
                0x00000000800c7cd0                D_800C7CD0 = 0x800c7cd0
                0x00000000800c7cd8                D_800C7CD8 = 0x800c7cd8
                0x0000000080109b88                D_80109B88 = 0x80109b88
                0x0000000080109b98                D_80109B98 = 0x80109b98
                0x0000000080109b9c                D_80109B9C = 0x80109b9c
                0x0000000080109ba0                D_80109BA0 = 0x80109ba0
                0x0000000080109bc8                D_80109BC8 = 0x80109bc8
                0x0000000080109bcc                D_80109BCC = 0x80109bcc
                0x0000000080109bd0                D_80109BD0 = 0x80109bd0
                0x0000000080109bdc                D_80109BDC = 0x80109bdc
                0x0000000080109be0                D_80109BE0 = 0x80109be0
                0x0000000080109be8                D_80109BE8 = 0x80109be8
                0x0000000080109bf8                D_80109BF8 = 0x80109bf8
                0x0000000080109c10                D_80109C10 = 0x80109c10
                0x0000000080109c18                D_80109C18 = 0x80109c18
                0x0000000080109c1c                D_80109C1C = 0x80109c1c
                0x0000000080109c20                D_80109C20 = 0x80109c20
                0x0000000080109c24                D_80109C24 = 0x80109c24
                0x0000000080109c28                D_80109C28 = 0x80109c28
                0x0000000080109c30                D_80109C30 = 0x80109c30
                0x0000000080109c34                D_80109C34 = 0x80109c34
                0x0000000080109c36                D_80109C36 = 0x80109c36
                0x0000000080109c37                D_80109C37 = 0x80109c37
                0x0000000080109c3c                D_80109C3C = 0x80109c3c
                0x0000000080109c4c                D_80109C4C = 0x80109c4c
                0x0000000080109c4e                D_80109C4E = 0x80109c4e
                0x0000000080109c4f                D_80109C4F = 0x80109c4f
                0x0000000080109c54                D_80109C54 = 0x80109c54
                0x0000000080109c5c                D_80109C5C = 0x80109c5c
                0x0000000080109c64                D_80109C64 = 0x80109c64
                0x0000000080109c66                D_80109C66 = 0x80109c66
                0x0000000080109c67                D_80109C67 = 0x80109c67
                0x0000000080109c6c                D_80109C6C = 0x80109c6c
                0x0000000080109c88                D_80109C88 = 0x80109c88
                0x0000000080109c94                D_80109C94 = 0x80109c94
                0x0000000080109c96                D_80109C96 = 0x80109c96
                0x0000000080109c9c                D_80109C9C = 0x80109c9c
                0x0000000080109cc4                D_80109CC4 = 0x80109cc4
                0x0000000080109cd0                D_80109CD0 = 0x80109cd0
                0x000000008010a190                D_8010A190 = 0x8010a190
                0x000000008010a198                D_8010A198 = 0x8010a198
                0x000000008010a19c                D_8010A19C = 0x8010a19c
                0x000000008010a1a8                D_8010A1A8 = 0x8010a1a8
                0x000000008010a358                D_8010A358 = 0x8010a358
                0x000000008010a370                D_8010A370 = 0x8010a370
                0x000000008010a398                D_8010A398 = 0x8010a398
                0x000000008010a3b0                D_8010A3B0 = 0x8010a3b0
                0x000000008010a3d8                D_8010A3D8 = 0x8010a3d8
                0x000000008010c428                D_8010C428 = 0x8010c428
                0x000000008010c438                D_8010C438 = 0x8010c438
                0x000000008010c44c                D_8010C44C = 0x8010c44c
                0x000000008010c758                D_8010C758 = 0x8010c758
                0x000000008010c75c                D_8010C75C = 0x8010c75c
                0x000000008010c760                D_8010C760 = 0x8010c760
                0x000000008010c764                D_8010C764 = 0x8010c764
                0x000000008010c768                D_8010C768 = 0x8010c768
                0x000000008010c948                D_8010C948 = 0x8010c948
                0x000000008010c960                D_8010C960 = 0x8010c960
                0x000000008010c9b0                D_8010C9B0 = 0x8010c9b0
                0x000000008010c9b8                D_8010C9B8 = 0x8010c9b8
                0x000000008010c9c0                D_8010C9C0 = 0x8010c9c0
                0x000000008010c9c8                D_8010C9C8 = 0x8010c9c8
                0x000000008010c9f0                D_8010C9F0 = 0x8010c9f0
                0x000000008010ca10                D_8010CA10 = 0x8010ca10
                0x000000008010ca14                D_8010CA14 = 0x8010ca14
                0x000000008010ca18                D_8010CA18 = 0x8010ca18
                0x000000008010ca1a                D_8010CA1A = 0x8010ca1a
                0x000000008010ca1c                D_8010CA1C = 0x8010ca1c
                0x000000008010ca20                D_8010CA20 = 0x8010ca20
                0x000000008010ca30                D_8010CA30 = 0x8010ca30
                0x000000008010ca34                D_8010CA34 = 0x8010ca34
                0x000000008010ca40                D_8010CA40 = 0x8010ca40
                0x000000008010ca4c                D_8010CA4C = 0x8010ca4c
                0x000000008010ca50                D_8010CA50 = 0x8010ca50
                0x000000008010ca58                D_8010CA58 = 0x8010ca58
                0x000000008010ca5c                D_8010CA5C = 0x8010ca5c
                0x000000008010ca60                D_8010CA60 = 0x8010ca60
                0x000000008010ca70                D_8010CA70 = 0x8010ca70
                0x000000008010ca90                D_8010CA90 = 0x8010ca90
                0x000000008010ca92                D_8010CA92 = 0x8010ca92
                0x000000008010ca98                D_8010CA98 = 0x8010ca98
                0x000000008010cab0                D_8010CAB0 = 0x8010cab0
                0x000000008010cab1                D_8010CAB1 = 0x8010cab1
                0x000000008010cab2                D_8010CAB2 = 0x8010cab2
                0x000000008010cab4                D_8010CAB4 = 0x8010cab4
                0x000000008010cab8                D_8010CAB8 = 0x8010cab8
                0x000000008010cad0                D_8010CAD0 = 0x8010cad0
                0x000000008013f7a0                D_8013F7A0 = 0x8013f7a0
                0x000000008013f7a4                D_8013F7A4 = 0x8013f7a4
                0x000000008013f7b0                D_8013F7B0 = 0x8013f7b0
                0x000000008013f7c0                D_8013F7C0 = 0x8013f7c0
                0x000000008013f7c4                D_8013F7C4 = 0x8013f7c4
                0x000000008013f7c8                D_8013F7C8 = 0x8013f7c8
                0x000000008013f7cc                D_8013F7CC = 0x8013f7cc
                0x000000008013f7d0                D_8013F7D0 = 0x8013f7d0
                0x000000008013f7d4                D_8013F7D4 = 0x8013f7d4
                0x000000008013f7d8                D_8013F7D8 = 0x8013f7d8
                0x000000008013f7dc                D_8013F7DC = 0x8013f7dc
                0x000000008013f7e0                D_8013F7E0 = 0x8013f7e0
                0x000000008013f830                D_8013F830 = 0x8013f830
                0x000000008013f850                D_8013F850 = 0x8013f850
                0x000000008013f854                D_8013F854 = 0x8013f854
                0x000000008013f858                D_8013F858 = 0x8013f858
                0x000000008013f860                D_8013F860 = 0x8013f860
                0x000000008013f864                D_8013F864 = 0x8013f864
                0x000000008013f868                D_8013F868 = 0x8013f868
                0x000000008013f870                D_8013F870 = 0x8013f870
                0x000000008013f874                D_8013F874 = 0x8013f874
                0x000000008013f878                D_8013F878 = 0x8013f878
                0x000000008013f880                D_8013F880 = 0x8013f880
                0x000000008013f884                D_8013F884 = 0x8013f884
                0x000000008013f888                D_8013F888 = 0x8013f888
                0x000000008013f890                D_8013F890 = 0x8013f890
                0x000000008013f894                D_8013F894 = 0x8013f894
                0x000000008013f898                D_8013F898 = 0x8013f898
                0x000000008013f8a0                D_8013F8A0 = 0x8013f8a0
                0x000000008013fa10                D_8013FA10 = 0x8013fa10
                0x000000008013fa3c                D_8013FA3C = 0x8013fa3c
                0x000000008013fbac                D_8013FBAC = 0x8013fbac
                0x000000008013fbd8                D_8013FBD8 = 0x8013fbd8
                0x000000008013fbe8                D_8013FBE8 = 0x8013fbe8
                0x000000008013fbf4                D_8013FBF4 = 0x8013fbf4
                0x000000008013fc70                D_8013FC70 = 0x8013fc70
                0x000000008013fc74                D_8013FC74 = 0x8013fc74
                0x000000008013fc78                D_8013FC78 = 0x8013fc78
                0x000000008013fc7c                D_8013FC7C = 0x8013fc7c
                0x000000008013fc80                D_8013FC80 = 0x8013fc80
                0x000000008013fc84                D_8013FC84 = 0x8013fc84
                0x000000008013fc88                D_8013FC88 = 0x8013fc88
                0x000000008013fc8c                D_8013FC8C = 0x8013fc8c
                0x000000008013fc8e                D_8013FC8E = 0x8013fc8e
                0x000000008013fc8f                D_8013FC8F = 0x8013fc8f
                0x000000008013fc91                gPlayerRacePos = 0x8013fc91
                0x000000008013fc94                D_8013FC94 = 0x8013fc94
                0x000000008013fc98                gPlayerLapCount = 0x8013fc98
                0x000000008013fc9c                D_8013FC9C = 0x8013fc9c
                0x000000008013fcdc                D_8013FCDC = 0x8013fcdc
                0x000000008013fce0                D_8013FCE0 = 0x8013fce0
                0x000000008013fcec                D_8013FCEC = 0x8013fcec
                0x000000008013fcf0                D_8013FCF0 = 0x8013fcf0
                0x000000008013fcf4                D_8013FCF4 = 0x8013fcf4
                0x000000008013fcf8                D_8013FCF8 = 0x8013fcf8
                0x000000008013fd34                D_8013FD34 = 0x8013fd34
                0x000000008013ff28                D_8013FF28 = 0x8013ff28
                0x000000008013ff38                D_8013FF38 = 0x8013ff38
                0x000000008013ff3c                D_8013FF3C = 0x8013ff3c
                0x000000008013ff40                D_8013FF40 = 0x8013ff40
                0x000000008013ff44                D_8013FF44 = 0x8013ff44
                0x000000008013ff50                D_8013FF50 = 0x8013ff50
                0x000000008013ff68                D_8013FF68 = 0x8013ff68
                0x000000008013ff70                D_8013FF70 = 0x8013ff70
                0x000000008013ff72                D_8013FF72 = 0x8013ff72
                0x000000008013ff74                D_8013FF74 = 0x8013ff74
                0x000000008013ff80                D_8013FF80 = 0x8013ff80
                0x000000008013ff84                D_8013FF84 = 0x8013ff84
                0x000000008013ff88                D_8013FF88 = 0x8013ff88
                0x000000008013ff8c                D_8013FF8C = 0x8013ff8c
                0x000000008013ff90                D_8013FF90 = 0x8013ff90
                0x000000008013ff92                D_8013FF92 = 0x8013ff92
                0x000000008013ff94                D_8013FF94 = 0x8013ff94
                0x000000008013ff95                D_8013FF95 = 0x8013ff95
                0x000000008013ff96                D_8013FF96 = 0x8013ff96
                0x000000008013ff98                D_8013FF98 = 0x8013ff98
                0x000000008013ff99                D_8013FF99 = 0x8013ff99
                0x000000008013ff9b                D_8013FF9B = 0x8013ff9b
                0x000000008013ff9c                D_8013FF9C = 0x8013ff9c
                0x000000008013ffa0                D_8013FFA0 = 0x8013ffa0
                0x000000008013ffa4                D_8013FFA4 = 0x8013ffa4
                0x000000008013ffa8                D_8013FFA8 = 0x8013ffa8
                0x000000008013ffa9                D_8013FFA9 = 0x8013ffa9
                0x000000008013ffaa                D_8013FFAA = 0x8013ffaa
                0x000000008013ffb0                D_8013FFB0 = 0x8013ffb0
                0x000000008013ffb8                D_8013FFB8 = 0x8013ffb8
                0x000000008013fff2                D_8013FFF2 = 0x8013fff2
                0x0000000080140448                D_80140448 = 0x80140448
                0x00000000801407e0                D_801407E0 = 0x801407e0
                0x0000000080140898                D_80140898 = 0x80140898
                0x0000000080140b78                D_80140B78 = 0x80140b78
                0x0000000080140ce8                D_80140CE8 = 0x80140ce8
                0x0000000080140f10                D_80140F10 = 0x80140f10
                0x0000000080140fc8                D_80140FC8 = 0x80140fc8
                0x00000000801416f8                D_801416F8 = 0x801416f8
                0x0000000080142050                D_80142050 = 0x80142050
                0x00000000801504b0                D_801504B0 = 0x801504b0
                0x00000000801511e0                D_801511E0 = 0x801511e0
                0x000000008016c2a8                D_8016C2A8 = 0x8016c2a8
                0x000000008016c2b0                D_8016C2B0 = 0x8016c2b0
                0x000000008016c2b1                D_8016C2B1 = 0x8016c2b1
                0x000000008016c2b2                D_8016C2B2 = 0x8016c2b2
                0x000000008016c2b3                D_8016C2B3 = 0x8016c2b3
                0x000000008016c2b4                D_8016C2B4 = 0x8016c2b4
                0x000000008016c2b8                D_8016C2B8 = 0x8016c2b8
                0x000000008016c2bc                D_8016C2BC = 0x8016c2bc
                0x000000008016c2d0                D_8016C2D0 = 0x8016c2d0
                0x000000008016c2d4                D_8016C2D4 = 0x8016c2d4
                0x000000008016c2d8                D_8016C2D8 = 0x8016c2d8
                0x000000008016c2ec                D_8016C2EC = 0x8016c2ec
                0x000000008016c2f0                D_8016C2F0 = 0x8016c2f0
                0x000000008016c2f4                D_8016C2F4 = 0x8016c2f4
                0x000000008016c2f8                D_8016C2F8 = 0x8016c2f8
                0x000000008016c2fc                D_8016C2FC = 0x8016c2fc
                0x000000008016c310                D_8016C310 = 0x8016c310
                0x000000008016c314                D_8016C314 = 0x8016c314
                0x000000008016c318                D_8016C318 = 0x8016c318
                0x000000008016c330                D_8016C330 = 0x8016c330
                0x000000008016c338                D_8016C338 = 0x8016c338
                0x000000008016c33c                D_8016C33C = 0x8016c33c
                0x000000008016c364                D_8016C364 = 0x8016c364
                0x000000008016c414                D_8016C414 = 0x8016c414
                0x000000008016c420                D_8016C420 = 0x8016c420
                0x000000008016c424                D_8016C424 = 0x8016c424
                0x000000008016c428                D_8016C428 = 0x8016c428
                0x000000008016c430                D_8016C430 = 0x8016c430
                0x000000008016c434                D_8016C434 = 0x8016c434
                0x000000008016c450                D_8016C450 = 0x8016c450
                0x000000008016c470                D_8016C470 = 0x8016c470
                0x000000008016c474                D_8016C474 = 0x8016c474
                0x000000008016c478                D_8016C478 = 0x8016c478
                0x000000008016c4e0                D_8016C4E0 = 0x8016c4e0
                0x000000008016c4e4                D_8016C4E4 = 0x8016c4e4
                0x000000008016c4e8                D_8016C4E8 = 0x8016c4e8
                0x000000008016c4f0                D_8016C4F0 = 0x8016c4f0
                0x000000008016c4f4                D_8016C4F4 = 0x8016c4f4
                0x000000008016c508                D_8016C508 = 0x8016c508
                0x000000008016c50c                D_8016C50C = 0x8016c50c
                0x000000008016c510                D_8016C510 = 0x8016c510
                0x000000008016c514                D_8016C514 = 0x8016c514
                0x000000008016c518                D_8016C518 = 0x8016c518
                0x000000008019dcd8                D_8019DCD8 = 0x8019dcd8
                0x000000008019dce0                D_8019DCE0 = 0x8019dce0
                0x000000008019dce4                D_8019DCE4 = 0x8019dce4
                0x000000008019dce8                D_8019DCE8 = 0x8019dce8
                0x000000008019dcf0                D_8019DCF0 = 0x8019dcf0
                0x000000008019dd70                D_8019DD70 = 0x8019dd70
                0x000000008019ddf0                D_8019DDF0 = 0x8019ddf0
                0x000000008019ddfc                D_8019DDFC = 0x8019ddfc
                0x000000008019de02                D_8019DE02 = 0x8019de02
                0x000000008019de0c                D_8019DE0C = 0x8019de0c
                0x000000008019de2c                D_8019DE2C = 0x8019de2c
                0x000000008019df1c                D_8019DF1C = 0x8019df1c
                0x000000008019e034                D_8019E034 = 0x8019e034
                0x000000008019e035                D_8019E035 = 0x8019e035
                0x000000008019e03c                D_8019E03C = 0x8019e03c
                0x000000008019e040                D_8019E040 = 0x8019e040
                0x000000008019e050                D_8019E050 = 0x8019e050
                0x000000008019e068                D_8019E068 = 0x8019e068
                0x000000008019e080                D_8019E080 = 0x8019e080
                0x000000008019e088                D_8019E088 = 0x8019e088
                0x000000008019e0a0                D_8019E0A0 = 0x8019e0a0
                0x000000008019e0b8                D_8019E0B8 = 0x8019e0b8
                0x000000008019e0d0                D_8019E0D0 = 0x8019e0d0
                0x000000008019e0f0                D_8019E0F0 = 0x8019e0f0
                0x000000008019e0f4                D_8019E0F4 = 0x8019e0f4
                0x000000008019e0f5                D_8019E0F5 = 0x8019e0f5
                0x000000008019e0f6                D_8019E0F6 = 0x8019e0f6
                0x000000008019e0f8                D_8019E0F8 = 0x8019e0f8
                0x000000008019e100                D_8019E100 = 0x8019e100
                0x000000008019e114                D_8019E114 = 0x8019e114
                0x000000008019e128                D_8019E128 = 0x8019e128
                0x000000008019e13c                D_8019E13C = 0x8019e13c
                0x000000008019e150                D_8019E150 = 0x8019e150
                0x000000008019e164                D_8019E164 = 0x8019e164
                0x000000008019e178                D_8019E178 = 0x8019e178
                0x000000008019e18c                D_8019E18C = 0x8019e18c
                0x000000008019e1a0                D_8019E1A0 = 0x8019e1a0
                0x000000008019e1b4                D_8019E1B4 = 0x8019e1b4
                0x000000008019e1c8                D_8019E1C8 = 0x8019e1c8
                0x000000008019e1dc                D_8019E1DC = 0x8019e1dc
                0x000000008019e1e0                D_8019E1E0 = 0x8019e1e0
                0x000000008019e1e8                D_8019E1E8 = 0x8019e1e8
                0x000000008019e1ec                D_8019E1EC = 0x8019e1ec
                0x000000008019e1f0                D_8019E1F0 = 0x8019e1f0
                0x000000008019e1f1                D_8019E1F1 = 0x8019e1f1
                0x000000008019e1f2                D_8019E1F2 = 0x8019e1f2
                0x000000008019e1f3                D_8019E1F3 = 0x8019e1f3
                0x000000008019e1f4                D_8019E1F4 = 0x8019e1f4
                0x000000008019e1f5                D_8019E1F5 = 0x8019e1f5
                0x000000008019e1f6                D_8019E1F6 = 0x8019e1f6
                0x000000008019e1f8                D_8019E1F8 = 0x8019e1f8
                0x000000008019e1fc                D_8019E1FC = 0x8019e1fc
                0x000000008019e200                D_8019E200 = 0x8019e200
                0x000000008019e208                D_8019E208 = 0x8019e208
                0x000000008019e20f                D_8019E20F = 0x8019e20f
                0x000000008019e210                D_8019E210 = 0x8019e210
                0x000000008019e218                D_8019E218 = 0x8019e218
                0x000000008019e22c                D_8019E22C = 0x8019e22c
                0x000000008019e240                D_8019E240 = 0x8019e240
                0x000000008019e254                D_8019E254 = 0x8019e254
                0x000000008019e268                D_8019E268 = 0x8019e268
                0x000000008019e27c                D_8019E27C = 0x8019e27c
                0x000000008019e290                D_8019E290 = 0x8019e290
                0x000000008019e2a4                D_8019E2A4 = 0x8019e2a4
                0x000000008019e2b8                D_8019E2B8 = 0x8019e2b8
                0x000000008019e2cc                D_8019E2CC = 0x8019e2cc
                0x000000008019e2e0                D_8019E2E0 = 0x8019e2e0
                0x000000008019e2e8                D_8019E2E8 = 0x8019e2e8
                0x000000008019e300                D_8019E300 = 0x8019e300
                0x000000008019e318                D_8019E318 = 0x8019e318
                0x000000008019e32c                D_8019E32C = 0x8019e32c
                0x000000008019e32d                D_8019E32D = 0x8019e32d
                0x000000008019e32e                D_8019E32E = 0x8019e32e
                0x000000008019e32f                D_8019E32F = 0x8019e32f
                0x000000008019e330                D_8019E330 = 0x8019e330
                0x000000008019e331                D_8019E331 = 0x8019e331
                0x000000008019e332                D_8019E332 = 0x8019e332
                0x000000008019e333                D_8019E333 = 0x8019e333
                0x000000008019e338                D_8019E338 = 0x8019e338
                0x000000008019e33a                D_8019E33A = 0x8019e33a
                0x000000008019e33c                D_8019E33C = 0x8019e33c
                0x000000008019e33e                D_8019E33E = 0x8019e33e
                0x000000008019e340                D_8019E340 = 0x8019e340
                0x000000008019e350                D_8019E350 = 0x8019e350
                0x000000008019e351                D_8019E351 = 0x8019e351
                0x000000008019e352                D_8019E352 = 0x8019e352
                0x000000008019e353                D_8019E353 = 0x8019e353
                0x000000008019e354                D_8019E354 = 0x8019e354
                0x000000008019e356                D_8019E356 = 0x8019e356
                0x000000008019e358                D_8019E358 = 0x8019e358
                0x000000008019e36c                D_8019E36C = 0x8019e36c
                0x000000008019e380                D_8019E380 = 0x8019e380
                0x000000008019e394                D_8019E394 = 0x8019e394
                0x000000008019e3a8                D_8019E3A8 = 0x8019e3a8
                0x000000008019e3bc                D_8019E3BC = 0x8019e3bc
                0x000000008019e3e4                D_8019E3E4 = 0x8019e3e4
                0x000000008019e3f8                D_8019E3F8 = 0x8019e3f8
                0x000000008019e3f9                D_8019E3F9 = 0x8019e3f9
                0x000000008019e3fa                D_8019E3FA = 0x8019e3fa
                0x000000008019e400                D_8019E400 = 0x8019e400
                0x000000008019e414                D_8019E414 = 0x8019e414
                0x000000008019e43c                D_8019E43C = 0x8019e43c
                0x000000008019e450                D_8019E450 = 0x8019e450
                0x000000008019e464                D_8019E464 = 0x8019e464
                0x000000008019e478                D_8019E478 = 0x8019e478
                0x000000008019e48c                D_8019E48C = 0x8019e48c
                0x000000008019e4a0                D_8019E4A0 = 0x8019e4a0
                0x000000008019e4a2                D_8019E4A2 = 0x8019e4a2
                0x000000008019e4a4                D_8019E4A4 = 0x8019e4a4
                0x000000008019e4ac                D_8019E4AC = 0x8019e4ac
                0x000000008019e4ae                D_8019E4AE = 0x8019e4ae
                0x000000008019e4b4                D_8019E4B4 = 0x8019e4b4
                0x000000008019e4b8                D_8019E4B8 = 0x8019e4b8
                0x000000008019e4bc                D_8019E4BC = 0x8019e4bc
                0x000000008019e4c0                D_8019E4C0 = 0x8019e4c0
                0x000000008019e4c2                D_8019E4C2 = 0x8019e4c2
                0x000000008019e4c8                D_8019E4C8 = 0x8019e4c8
                0x000000008019e4dc                D_8019E4DC = 0x8019e4dc
                0x000000008019e4f0                D_8019E4F0 = 0x8019e4f0
                0x000000008019e504                D_8019E504 = 0x8019e504
                0x000000008019e518                D_8019E518 = 0x8019e518
                0x000000008019e52c                D_8019E52C = 0x8019e52c
                0x000000008019e540                D_8019E540 = 0x8019e540
                0x000000008019e554                D_8019E554 = 0x8019e554
                0x000000008019e568                D_8019E568 = 0x8019e568
                0x000000008019e57c                D_8019E57C = 0x8019e57c
                0x000000008019e580                D_8019E580 = 0x8019e580
                0x000000008019e5a8                D_8019E5A8 = 0x8019e5a8
                0x000000008019e5b8                D_8019E5B8 = 0x8019e5b8
                0x000000008019e5ba                D_8019E5BA = 0x8019e5ba
                0x000000008019e5bc                D_8019E5BC = 0x8019e5bc
                0x000000008019e5be                D_8019E5BE = 0x8019e5be
                0x000000008019e5c4                D_8019E5C4 = 0x8019e5c4
                0x000000008019e5c8                D_8019E5C8 = 0x8019e5c8
                0x000000008019e5cc                D_8019E5CC = 0x8019e5cc
                0x000000008019e5cd                D_8019E5CD = 0x8019e5cd
                0x000000008019e5ce                D_8019E5CE = 0x8019e5ce
                0x000000008019e5cf                D_8019E5CF = 0x8019e5cf
                0x000000008019e5d0                D_8019E5D0 = 0x8019e5d0
                0x000000008019e5d1                D_8019E5D1 = 0x8019e5d1
                0x000000008019e5d2                D_8019E5D2 = 0x8019e5d2
                0x000000008019e5d3                D_8019E5D3 = 0x8019e5d3
                0x000000008019e5d4                D_8019E5D4 = 0x8019e5d4
                0x000000008019e5d6                D_8019E5D6 = 0x8019e5d6
                0x000000008019e5e0                D_8019E5E0 = 0x8019e5e0
                0x000000008019e5f4                D_8019E5F4 = 0x8019e5f4
                0x000000008019e608                D_8019E608 = 0x8019e608
                0x000000008019e61c                D_8019E61C = 0x8019e61c
                0x000000008019e630                D_8019E630 = 0x8019e630
                0x000000008019e644                D_8019E644 = 0x8019e644
                0x000000008019e658                D_8019E658 = 0x8019e658
                0x000000008019e66c                D_8019E66C = 0x8019e66c
                0x000000008019e680                D_8019E680 = 0x8019e680
                0x000000008019e694                D_8019E694 = 0x8019e694
                0x000000008019e6a8                D_8019E6A8 = 0x8019e6a8
                0x000000008019e6a9                D_8019E6A9 = 0x8019e6a9
                0x000000008019e6ac                D_8019E6AC = 0x8019e6ac
                0x000000008019e6b0                D_8019E6B0 = 0x8019e6b0
                0x000000008019e6b8                D_8019E6B8 = 0x8019e6b8
                0x000000008019e6c0                D_8019E6C0 = 0x8019e6c0
                0x000000008019e6c8                D_8019E6C8 = 0x8019e6c8
                0x000000008019e6d0                D_8019E6D0 = 0x8019e6d0
                0x000000008019e6d8                D_8019E6D8 = 0x8019e6d8
                0x000000008019e6e0                D_8019E6E0 = 0x8019e6e0
                0x000000008019e6f0                D_8019E6F0 = 0x8019e6f0
                0x000000008019e700                D_8019E700 = 0x8019e700
                0x000000008019e714                D_8019E714 = 0x8019e714
                0x000000008019e728                D_8019E728 = 0x8019e728
                0x000000008019e73c                D_8019E73C = 0x8019e73c
                0x000000008019e750                D_8019E750 = 0x8019e750
                0x000000008019e764                D_8019E764 = 0x8019e764
                0x000000008019e778                D_8019E778 = 0x8019e778
                0x000000008019e78c                D_8019E78C = 0x8019e78c
                0x000000008019e7a0                D_8019E7A0 = 0x8019e7a0
                0x000000008019e7b4                D_8019E7B4 = 0x8019e7b4
                0x000000008019e7c8                D_8019E7C8 = 0x8019e7c8
                0x000000008019e7d0                D_8019E7D0 = 0x8019e7d0
                0x000000008019e7d5                D_8019E7D5 = 0x8019e7d5
                0x000000008019e7d6                D_8019E7D6 = 0x8019e7d6
                0x000000008019e7d7                D_8019E7D7 = 0x8019e7d7
                0x000000008019e7e0                D_8019E7E0 = 0x8019e7e0
                0x000000008019e7e1                D_8019E7E1 = 0x8019e7e1
                0x000000008019e7e2                D_8019E7E2 = 0x8019e7e2
                0x000000008019e7e8                D_8019E7E8 = 0x8019e7e8
                0x000000008019e7fc                D_8019E7FC = 0x8019e7fc
                0x000000008019e810                D_8019E810 = 0x8019e810
                0x000000008019e824                D_8019E824 = 0x8019e824
                0x000000008019e838                D_8019E838 = 0x8019e838
                0x000000008019e84c                D_8019E84C = 0x8019e84c
                0x000000008019e860                D_8019E860 = 0x8019e860
                0x000000008019e874                D_8019E874 = 0x8019e874
                0x000000008019e888                D_8019E888 = 0x8019e888
                0x000000008019e89c                D_8019E89C = 0x8019e89c
                0x000000008019e8b0                D_8019E8B0 = 0x8019e8b0
                0x000000008019e8c4                D_8019E8C4 = 0x8019e8c4
                0x000000008019e8d8                D_8019E8D8 = 0x8019e8d8
                0x000000008019e8ec                D_8019E8EC = 0x8019e8ec
                0x000000008019e900                D_8019E900 = 0x8019e900
                0x000000008019e908                D_8019E908 = 0x8019e908
                0x000000008019e910                D_8019E910 = 0x8019e910
                0x000000008019e916                D_8019E916 = 0x8019e916
                0x000000008019e917                D_8019E917 = 0x8019e917
                0x000000008019e918                D_8019E918 = 0x8019e918
                0x000000008019e919                D_8019E919 = 0x8019e919
                0x000000008019e91a                D_8019E91A = 0x8019e91a
                0x000000008019e920                D_8019E920 = 0x8019e920
                0x000000008019e948                D_8019E948 = 0x8019e948
                0x000000008019e95c                D_8019E95C = 0x8019e95c
                0x000000008019e960                D_8019E960 = 0x8019e960
                0x000000008019e964                D_8019E964 = 0x8019e964
                0x000000008019e968                D_8019E968 = 0x8019e968
                0x000000008019e96c                D_8019E96C = 0x8019e96c
                0x000000008019e970                D_8019E970 = 0x8019e970
                0x000000008019e972                D_8019E972 = 0x8019e972
                0x000000008019e974                D_8019E974 = 0x8019e974
                0x000000008019e976                D_8019E976 = 0x8019e976
                0x000000008019e978                D_8019E978 = 0x8019e978
                0x000000008019e979                D_8019E979 = 0x8019e979
                0x000000008019e97a                D_8019E97A = 0x8019e97a
                0x000000008019e97b                D_8019E97B = 0x8019e97b
                0x000000008019e97c                D_8019E97C = 0x8019e97c
                0x000000008019e980                D_8019E980 = 0x8019e980
                0x000000008019e982                D_8019E982 = 0x8019e982
                0x000000008019e984                D_8019E984 = 0x8019e984
                0x000000008019e986                D_8019E986 = 0x8019e986
                0x000000008019e990                D_8019E990 = 0x8019e990
                0x000000008019e991                D_8019E991 = 0x8019e991
                0x000000008019e992                D_8019E992 = 0x8019e992
                0x000000008019e993                D_8019E993 = 0x8019e993
                0x000000008019e994                D_8019E994 = 0x8019e994
                0x000000008019e998                D_8019E998 = 0x8019e998
                0x000000008019e99c                D_8019E99C = 0x8019e99c
                0x000000008019e9a0                D_8019E9A0 = 0x8019e9a0
                0x000000008019e9a4                D_8019E9A4 = 0x8019e9a4
                0x000000008019e9a8                D_8019E9A8 = 0x8019e9a8
                0x000000008019e9b0                D_8019E9B0 = 0x8019e9b0
                0x000000008019e9c8                D_8019E9C8 = 0x8019e9c8
                0x000000008019e9e0                D_8019E9E0 = 0x8019e9e0
                0x000000008019e9f8                D_8019E9F8 = 0x8019e9f8
                0x000000008019ea10                D_8019EA10 = 0x8019ea10
                0x000000008019ea28                D_8019EA28 = 0x8019ea28
                0x000000008019ea40                D_8019EA40 = 0x8019ea40
                0x000000008019ea68                D_8019EA68 = 0x8019ea68
                0x000000008019ea7c                D_8019EA7C = 0x8019ea7c
                0x000000008019ea90                D_8019EA90 = 0x8019ea90
                0x000000008019eaa4                D_8019EAA4 = 0x8019eaa4
                0x000000008019eab8                D_8019EAB8 = 0x8019eab8
                0x000000008019eacc                D_8019EACC = 0x8019eacc
                0x000000008019eae0                D_8019EAE0 = 0x8019eae0
                0x000000008019eaf4                D_8019EAF4 = 0x8019eaf4
                0x000000008019eb08                D_8019EB08 = 0x8019eb08
                0x000000008019eb1c                D_8019EB1C = 0x8019eb1c
                0x000000008019eb30                D_8019EB30 = 0x8019eb30
                0x000000008019eb44                D_8019EB44 = 0x8019eb44
                0x000000008019eb58                D_8019EB58 = 0x8019eb58
                0x000000008019eb6c                D_8019EB6C = 0x8019eb6c
                0x000000008019eb80                D_8019EB80 = 0x8019eb80
                0x000000008019eb94                D_8019EB94 = 0x8019eb94
                0x000000008019eba8                D_8019EBA8 = 0x8019eba8
                0x000000008019ebbc                D_8019EBBC = 0x8019ebbc
                0x000000008019ebc0                D_8019EBC0 = 0x8019ebc0
                0x000000008019ebc8                D_8019EBC8 = 0x8019ebc8
                0x000000008019ebd0                D_8019EBD0 = 0x8019ebd0
                0x000000008019ebd8                D_8019EBD8 = 0x8019ebd8
                0x000000008019ebda                D_8019EBDA = 0x8019ebda
                0x000000008019ebdc                D_8019EBDC = 0x8019ebdc
                0x000000008019ebde                D_8019EBDE = 0x8019ebde
                0x000000008019ebe0                D_8019EBE0 = 0x8019ebe0
                0x000000008019ebe4                D_8019EBE4 = 0x8019ebe4
                0x000000008019ebe8                D_8019EBE8 = 0x8019ebe8
                0x000000008019ebe9                D_8019EBE9 = 0x8019ebe9
                0x000000008019ebea                D_8019EBEA = 0x8019ebea
                0x000000008019ebeb                D_8019EBEB = 0x8019ebeb
                0x000000008019ebec                D_8019EBEC = 0x8019ebec
                0x000000008019ebed                D_8019EBED = 0x8019ebed
                0x000000008019ebee                D_8019EBEE = 0x8019ebee
                0x000000008019ebf0                D_8019EBF0 = 0x8019ebf0
                0x000000008019ebf4                D_8019EBF4 = 0x8019ebf4
                0x000000008019ebf8                D_8019EBF8 = 0x8019ebf8
                0x000000008019ebfc                D_8019EBFC = 0x8019ebfc
                0x000000008019ec00                D_8019EC00 = 0x8019ec00
                0x000000008019ec04                D_8019EC04 = 0x8019ec04
                0x000000008019ec08                D_8019EC08 = 0x8019ec08
                0x000000008019ec0c                D_8019EC0C = 0x8019ec0c
                0x000000008019ec10                D_8019EC10 = 0x8019ec10
                0x000000008019ec14                D_8019EC14 = 0x8019ec14
                0x000000008019ec18                D_8019EC18 = 0x8019ec18
                0x000000008019ec20                D_8019EC20 = 0x8019ec20
                0x000000008019ed30                D_8019ED30 = 0x8019ed30
                0x000000008019ed3a                D_8019ED3A = 0x8019ed3a
                0x000000008019ed50                D_8019ED50 = 0x8019ed50
                0x000000008019ed58                D_8019ED58 = 0x8019ed58
                0x000000008019ed80                D_8019ED80 = 0x8019ed80
                0x000000008019ed98                D_8019ED98 = 0x8019ed98
                0x000000008019edb0                D_8019EDB0 = 0x8019edb0
                0x000000008019edc8                D_8019EDC8 = 0x8019edc8
                0x000000008019eddc                D_8019EDDC = 0x8019eddc
                0x000000008019eddd                D_8019EDDD = 0x8019eddd
                0x000000008019edde                D_8019EDDE = 0x8019edde
                0x000000008019eddf                D_8019EDDF = 0x8019eddf
                0x000000008019ede0                D_8019EDE0 = 0x8019ede0
                0x000000008019ede4                D_8019EDE4 = 0x8019ede4
                0x000000008019ede8                D_8019EDE8 = 0x8019ede8
                0x000000008019edf0                D_8019EDF0 = 0x8019edf0
                0x000000008019edf8                D_8019EDF8 = 0x8019edf8
                0x000000008019ee00                D_8019EE00 = 0x8019ee00
                0x000000008019ee01                D_8019EE01 = 0x8019ee01
                0x000000008019ee02                D_8019EE02 = 0x8019ee02
                0x000000008019ee04                D_8019EE04 = 0x8019ee04
                0x000000008019ee08                D_8019EE08 = 0x8019ee08
                0x000000008019ee0c                D_8019EE0C = 0x8019ee0c
                0x000000008019ee10                D_8019EE10 = 0x8019ee10
                0x000000008019ee14                D_8019EE14 = 0x8019ee14
                0x000000008019ee20                D_8019EE20 = 0x8019ee20
                0x000000008019ee24                D_8019EE24 = 0x8019ee24
                0x000000008019ee28                D_8019EE28 = 0x8019ee28
                0x000000008019ee30                D_8019EE30 = 0x8019ee30
                0x000000008019ee40                D_8019EE40 = 0x8019ee40
                0x000000008019ee50                D_8019EE50 = 0x8019ee50
                0x000000008019ee60                D_8019EE60 = 0x8019ee60
                0x000000008019ee70                D_8019EE70 = 0x8019ee70
                0x000000008019eec0                D_8019EEC0 = 0x8019eec0
                0x000000008019eed0                D_8019EED0 = 0x8019eed0
                0x000000008019eee0                D_8019EEE0 = 0x8019eee0
                0x000000008019eef0                D_8019EEF0 = 0x8019eef0
                0x000000008019ef00                D_8019EF00 = 0x8019ef00
                0x000000008019ef10                D_8019EF10 = 0x8019ef10
                0x000000008019ef20                D_8019EF20 = 0x8019ef20
                0x000000008019ef30                D_8019EF30 = 0x8019ef30
                0x000000008019ef40                D_8019EF40 = 0x8019ef40
                0x000000008019ef50                D_8019EF50 = 0x8019ef50
                0x000000008019ef60                D_8019EF60 = 0x8019ef60
                0x000000008019ef70                D_8019EF70 = 0x8019ef70
                0x000000008019ef80                D_8019EF80 = 0x8019ef80
                0x000000008019ef90                D_8019EF90 = 0x8019ef90
                0x000000008019efa0                D_8019EFA0 = 0x8019efa0
                0x000000008019efb0                D_8019EFB0 = 0x8019efb0
                0x000000008019efc0                D_8019EFC0 = 0x8019efc0
                0x000000008019efd0                D_8019EFD0 = 0x8019efd0
                0x000000008019efe0                D_8019EFE0 = 0x8019efe0
                0x000000008019eff0                D_8019EFF0 = 0x8019eff0
                0x000000008019f000                D_8019F000 = 0x8019f000
                0x000000008019f002                D_8019F002 = 0x8019f002
                0x000000008019f008                D_8019F008 = 0x8019f008
                0x000000008019f2d0                D_8019F2D0 = 0x8019f2d0
                0x000000008019f2d1                D_8019F2D1 = 0x8019f2d1
                0x000000008019f2e0                D_8019F2E0 = 0x8019f2e0
                0x000000008019fb78                D_8019FB78 = 0x8019fb78
                0x000000008019fb90                D_8019FB90 = 0x8019fb90
                0x000000008019fbe0                D_8019FBE0 = 0x8019fbe0
                0x000000008019fbe4                D_8019FBE4 = 0x8019fbe4
                0x000000008019fbe8                D_8019FBE8 = 0x8019fbe8
                0x000000008019fbec                D_8019FBEC = 0x8019fbec
                0x000000008019fbf0                D_8019FBF0 = 0x8019fbf0
                0x000000008019fbf4                D_8019FBF4 = 0x8019fbf4
                0x000000008019fbf8                D_8019FBF8 = 0x8019fbf8
                0x000000008019fbfc                D_8019FBFC = 0x8019fbfc
                0x000000008019fc00                D_8019FC00 = 0x8019fc00
                0x000000008019fc04                D_8019FC04 = 0x8019fc04
                0x000000008019fc08                D_8019FC08 = 0x8019fc08
                0x000000008019fc0c                D_8019FC0C = 0x8019fc0c
                0x000000008019fc0f                D_8019FC0F = 0x8019fc0f
                0x000000008019fc10                D_8019FC10 = 0x8019fc10
                0x000000008019fc18                D_8019FC18 = 0x8019fc18
                0x000000008019fdf8                D_8019FDF8 = 0x8019fdf8
                0x000000008019fe00                D_8019FE00 = 0x8019fe00
                0x000000008019ffe8                D_8019FFE8 = 0x8019ffe8
                0x000000008019fff0                D_8019FFF0 = 0x8019fff0
                0x00000000801a0028                D_801A0028 = 0x801a0028
                0x00000000801a0030                D_801A0030 = 0x801a0030
                0x00000000801a0034                D_801A0034 = 0x801a0034
                0x00000000801a0058                D_801A0058 = 0x801a0058
                0x00000000801a005c                D_801A005C = 0x801a005c
                0x00000000801a0060                D_801A0060 = 0x801a0060
                0x00000000801a0064                D_801A0064 = 0x801a0064
                0x00000000801a2090                D_801A2090 = 0x801a2090
                0x00000000801a4240                D_801A4240 = 0x801a4240
                0x00000000801a4560                D_801A4560 = 0x801a4560
                0x00000000801a4578                D_801A4578 = 0x801a4578
                0x00000000801a4580                D_801A4580 = 0x801a4580
                0x00000000801a45a0                D_801A45A0 = 0x801a45a0
                0x00000000801a8750                D_801A8750 = 0x801a8750
                0x00000000801a8768                D_801A8768 = 0x801a8768
                0x00000000801a8868                D_801A8868 = 0x801a8868
                0x00000000801aaaf0                D_801AAAF0 = 0x801aaaf0
                0x00000000801aaaf8                D_801AAAF8 = 0x801aaaf8
                0x00000000801aab00                D_801AAB00 = 0x801aab00
                0x00000000801aab10                D_801AAB10 = 0x801aab10
                0x00000000801aab90                D_801AAB90 = 0x801aab90
                0x00000000801aabcc                D_801AABCC = 0x801aabcc
                0x00000000801aabd0                D_801AABD0 = 0x801aabd0
                0x00000000801aabd1                D_801AABD1 = 0x801aabd1
                0x00000000801aabd8                D_801AABD8 = 0x801aabd8
                0x00000000801aabf8                D_801AABF8 = 0x801aabf8
                0x00000000801aac10                D_801AAC10 = 0x801aac10
                0x00000000801aac20                D_801AAC20 = 0x801aac20
                0x00000000801aac30                D_801AAC30 = 0x801aac30
                0x00000000801aac6c                D_801AAC6C = 0x801aac6c
                0x00000000801aac70                D_801AAC70 = 0x801aac70
                0x00000000801aad70                D_801AAD70 = 0x801aad70
                0x00000000801aae70                D_801AAE70 = 0x801aae70
                0x00000000801aae90                D_801AAE90 = 0x801aae90
                0x00000000801aaeb0                D_801AAEB0 = 0x801aaeb0
                0x00000000801ab060                D_801AB060 = 0x801ab060
                0x00000000801ac060                D_801AC060 = 0x801ac060
                0x00000000801ac078                D_801AC078 = 0x801ac078
                0x00000000801ac090                D_801AC090 = 0x801ac090
                0x00000000801ac092                D_801AC092 = 0x801ac092
                0x00000000801ac094                D_801AC094 = 0x801ac094
                0x00000000801ac0a8                D_801AC0A8 = 0x801ac0a8
                0x00000000801ac0aa                D_801AC0AA = 0x801ac0aa
                0x00000000801ac0ac                D_801AC0AC = 0x801ac0ac
                0x00000000801ac0c0                D_801AC0C0 = 0x801ac0c0
                0x00000000801ac0d0                D_801AC0D0 = 0x801ac0d0
                0x00000000801ac110                D_801AC110 = 0x801ac110
                0x00000000801ac120                D_801AC120 = 0x801ac120
                0x00000000801ac2d0                D_801AC2D0 = 0x801ac2d0
                0x00000000801ad2d0                D_801AD2D0 = 0x801ad2d0
                0x00000000801ad2e8                D_801AD2E8 = 0x801ad2e8
                0x00000000801ad2f0                D_801AD2F0 = 0x801ad2f0
                0x00000000801ad2f8                D_801AD2F8 = 0x801ad2f8
                0x00000000801ad330                D_801AD330 = 0x801ad330
                0x00000000801ad334                D_801AD334 = 0x801ad334
                0x00000000801ad338                D_801AD338 = 0x801ad338
                0x00000000801ad33c                D_801AD33C = 0x801ad33c
                0x00000000801ad340                D_801AD340 = 0x801ad340
                0x00000000801ad350                D_801AD350 = 0x801ad350
                0x00000000801ad38c                D_801AD38C = 0x801ad38c
                0x00000000801ad390                D_801AD390 = 0x801ad390
                0x00000000801ad394                D_801AD394 = 0x801ad394
                0x00000000801ad395                D_801AD395 = 0x801ad395
                0x00000000801ad396                D_801AD396 = 0x801ad396
                0x00000000801ad397                D_801AD397 = 0x801ad397
                0x00000000801ad398                D_801AD398 = 0x801ad398
                0x00000000801ad399                D_801AD399 = 0x801ad399
                0x00000000801ad39c                D_801AD39C = 0x801ad39c
                0x00000000801ad3a0                D_801AD3A0 = 0x801ad3a0
                0x00000000801ad410                D_801AD410 = 0x801ad410
                0x00000000801ad414                D_801AD414 = 0x801ad414
                0x00000000801ad415                D_801AD415 = 0x801ad415
                0x00000000801ad416                D_801AD416 = 0x801ad416
                0x00000000801ad417                D_801AD417 = 0x801ad417
                0x00000000801ad418                D_801AD418 = 0x801ad418
                0x00000000801ad419                D_801AD419 = 0x801ad419
                0x00000000801ad41c                D_801AD41C = 0x801ad41c
                0x00000000801ad420                D_801AD420 = 0x801ad420
                0x00000000801ad484                D_801AD484 = 0x801ad484
                0x00000000801ad490                D_801AD490 = 0x801ad490
                0x00000000801ad498                D_801AD498 = 0x801ad498
                0x00000000801ad4b0                D_801AD4B0 = 0x801ad4b0
                0x00000000801ad660                D_801AD660 = 0x801ad660
                0x00000000801ae660                D_801AE660 = 0x801ae660
                0x00000000801aee60                D_801AEE60 = 0x801aee60
                0x00000000801aee70                D_801AEE70 = 0x801aee70
                0x00000000801af270                D_801AF270 = 0x801af270
                0x00000000801afe70                D_801AFE70 = 0x801afe70
                0x00000000801b5a30                D_801B5A30 = 0x801b5a30
                0x00000000801da800                D_801DA800 = 0x801da800
                0x0000000080200000                D_80200000 = 0x80200000
                0x0000000080270800                D_80270800 = 0x80270800
                0x0000000080330800                D_80330800 = 0x80330800
                0x0000000080330808                D_80330808 = 0x80330808
                0x0000000080331210                D_80331210 = 0x80331210
                0x00000000803316f8                D_803316F8 = 0x803316f8
                0x0000000080331be0                D_80331BE0 = 0x80331be0
                0x00000000803320c8                D_803320C8 = 0x803320c8
                0x0000000080333d08                D_80333D08 = 0x80333d08
                0x0000000080333ed8                D_80333ED8 = 0x80333ed8
                0x00000000803340a8                D_803340A8 = 0x803340a8
                0x0000000080334590                D_80334590 = 0x80334590
                0x0000000080335ed8                D_80335ED8 = 0x80335ed8
                0x0000000080336840                D_80336840 = 0x80336840
                0x0000000080336c58                D_80336C58 = 0x80336c58
                0x0000000080337070                D_80337070 = 0x80337070
                0x0000000080338158                D_80338158 = 0x80338158
                0x00000000803383e8                D_803383E8 = 0x803383e8
                0x00000000803384f0                D_803384F0 = 0x803384f0
                0x00000000803388e8                D_803388E8 = 0x803388e8
                0x0000000080339118                D_80339118 = 0x80339118
                0x0000000080339948                D_80339948 = 0x80339948
                0x000000008033a880                D_8033A880 = 0x8033a880
                0x000000008033b288                D_8033B288 = 0x8033b288
                0x000000008033bc90                D_8033BC90 = 0x8033bc90
                0x000000008033c698                D_8033C698 = 0x8033c698
                0x000000008033d0a0                D_8033D0A0 = 0x8033d0a0
                0x000000008033e9b0                D_8033E9B0 = 0x8033e9b0
                0x000000008033f3b8                D_8033F3B8 = 0x8033f3b8
                0x000000008033f8a4                D_8033F8A4 = 0x8033f8a4
                0x000000008033fa20                D_8033FA20 = 0x8033fa20
                0x000000008033fb2c                D_8033FB2C = 0x8033fb2c
                0x000000008033fd10                D_8033FD10 = 0x8033fd10
                0x00000000803402c0                D_803402C0 = 0x803402c0
                0x0000000080340cc8                D_80340CC8 = 0x80340cc8
                0x00000000803416d0                D_803416D0 = 0x803416d0
                0x00000000803420d8                D_803420D8 = 0x803420d8
                0x0000000080342ae0                D_80342AE0 = 0x80342ae0
                0x00000000803434e8                D_803434E8 = 0x803434e8
                0x0000000080344df8                D_80344DF8 = 0x80344df8
                0x0000000080345800                D_80345800 = 0x80345800
                0x0000000080346208                D_80346208 = 0x80346208
                0x0000000080346c10                D_80346C10 = 0x80346c10
                0x0000000080347618                D_80347618 = 0x80347618
                0x0000000080348020                D_80348020 = 0x80348020
                0x0000000080348a28                D_80348A28 = 0x80348a28
                0x0000000080349430                D_80349430 = 0x80349430
                0x0000000080349e38                D_80349E38 = 0x80349e38
                0x000000008034a840                D_8034A840 = 0x8034a840
                0x000000008034b248                D_8034B248 = 0x8034b248
                0x000000008034bc50                D_8034BC50 = 0x8034bc50
                0x000000008034cb58                D_8034CB58 = 0x8034cb58
                0x000000008034cd40                D_8034CD40 = 0x8034cd40
                0x000000008034cd68                D_8034CD68 = 0x8034cd68
                0x000000008034eaf8                D_8034EAF8 = 0x8034eaf8
                0x000000008034ec8c                D_8034EC8C = 0x8034ec8c
                0x000000008034f950                D_8034F950 = 0x8034f950
                0x000000008034fb48                D_8034FB48 = 0x8034fb48
                0x000000008034fc50                D_8034FC50 = 0x8034fc50
                0x000000008034fcf8                D_8034FCF8 = 0x8034fcf8
                0x000000008034ffa0                D_8034FFA0 = 0x8034ffa0
                0x000000008034ffc8                D_8034FFC8 = 0x8034ffc8
                0x00000000803500d0                D_803500D0 = 0x803500d0
                0x00000000803500e8                D_803500E8 = 0x803500e8
                0x0000000080350390                D_80350390 = 0x80350390
                0x00000000803503b8                D_803503B8 = 0x803503b8
                0x00000000803504c0                D_803504C0 = 0x803504c0
                0x00000000803504d8                D_803504D8 = 0x803504d8
                0x00000000803505e0                D_803505E0 = 0x803505e0
                0x00000000803505f8                D_803505F8 = 0x803505f8
                0x0000000080350868                D_80350868 = 0x80350868
                0x0000000080350890                D_80350890 = 0x80350890
                0x0000000080350bf8                D_80350BF8 = 0x80350bf8
                0x0000000080350c20                D_80350C20 = 0x80350c20
                0x0000000080350ec8                D_80350EC8 = 0x80350ec8
                0x0000000080350ef0                D_80350EF0 = 0x80350ef0
                0x0000000080351078                D_80351078 = 0x80351078
                0x0000000080351090                D_80351090 = 0x80351090
                0x00000000803510a0                D_803510A0 = 0x803510a0
                0x00000000803510b8                D_803510B8 = 0x803510b8
                0x0000000080351140                D_80351140 = 0x80351140
                0x0000000080351158                D_80351158 = 0x80351158
                0x00000000803511a8                D_803511A8 = 0x803511a8
                0x00000000803511c0                D_803511C0 = 0x803511c0
                0x0000000080351210                D_80351210 = 0x80351210
                0x0000000080351228                D_80351228 = 0x80351228
                0x0000000080351290                D_80351290 = 0x80351290
                0x00000000803512b8                D_803512B8 = 0x803512b8
                0x0000000080351440                D_80351440 = 0x80351440
                0x0000000080351458                D_80351458 = 0x80351458
                0x0000000080351520                D_80351520 = 0x80351520
                0x0000000080351538                D_80351538 = 0x80351538
                0x00000000803515c0                D_803515C0 = 0x803515c0
                0x00000000803515d8                D_803515D8 = 0x803515d8
                0x0000000080351660                D_80351660 = 0x80351660
                0x0000000080351688                D_80351688 = 0x80351688
                0x0000000080351710                D_80351710 = 0x80351710
                0x0000000080351738                D_80351738 = 0x80351738
                0x0000000080351800                D_80351800 = 0x80351800
                0x0000000080351818                D_80351818 = 0x80351818
                0x0000000080351bb0                D_80351BB0 = 0x80351bb0
                0x0000000080351bd8                D_80351BD8 = 0x80351bd8
                0x0000000080351bf0                D_80351BF0 = 0x80351bf0
                0x0000000080351c08                D_80351C08 = 0x80351c08
                0x0000000080351cf8                D_80351CF8 = 0x80351cf8
                0x0000000080351d10                D_80351D10 = 0x80351d10
                0x0000000080351da8                D_80351DA8 = 0x80351da8
                0x0000000080351dc0                D_80351DC0 = 0x80351dc0
                0x0000000080351e58                D_80351E58 = 0x80351e58
                0x0000000080351e70                D_80351E70 = 0x80351e70
                0x0000000080351f08                D_80351F08 = 0x80351f08
                0x0000000080351f20                D_80351F20 = 0x80351f20
                0x0000000080351fb8                D_80351FB8 = 0x80351fb8
                0x0000000080351fd0                D_80351FD0 = 0x80351fd0
                0x0000000080352068                D_80352068 = 0x80352068
                0x0000000080352080                D_80352080 = 0x80352080
                0x0000000080352118                D_80352118 = 0x80352118
                0x0000000080352130                D_80352130 = 0x80352130
                0x00000000803521d8                D_803521D8 = 0x803521d8
                0x00000000803521f0                D_803521F0 = 0x803521f0
                0x0000000080352298                D_80352298 = 0x80352298
                0x00000000803522b0                D_803522B0 = 0x803522b0
                0x0000000080352358                D_80352358 = 0x80352358
                0x0000000080352370                D_80352370 = 0x80352370
                0x0000000080352618                D_80352618 = 0x80352618
                0x0000000080352640                D_80352640 = 0x80352640
                0x00000000803526d8                D_803526D8 = 0x803526d8
                0x00000000803526f8                D_803526F8 = 0x803526f8
                0x0000000080352798                D_80352798 = 0x80352798
                0x0000000080352fc0                D_80352FC0 = 0x80352fc0
                0x00000000803534c8                D_803534C8 = 0x803534c8
                0x0000000080354170                D_80354170 = 0x80354170
                0x00000000803547b8                D_803547B8 = 0x803547b8
                0x0000000080354c70                D_80354C70 = 0x80354c70
                0x00000000803551f0                D_803551F0 = 0x803551f0
                0x00000000803555b8                D_803555B8 = 0x803555b8
                0x00000000803557f0                D_803557F0 = 0x803557f0
                0x0000000080355bd8                D_80355BD8 = 0x80355bd8
                0x00000000803560f0                D_803560F0 = 0x803560f0
                0x0000000080356118                D_80356118 = 0x80356118
                0x0000000080356548                D_80356548 = 0x80356548
                0x00000000803567d0                D_803567D0 = 0x803567d0
                0x0000000080356ad8                D_80356AD8 = 0x80356ad8
                0x0000000080357284                D_80357284 = 0x80357284
                0x00000000803573c0                D_803573C0 = 0x803573c0
                0x0000000080358a60                D_80358A60 = 0x80358a60
                0x0000000080359608                D_80359608 = 0x80359608
                0x000000008035a000                D_8035A000 = 0x8035a000
                0x000000008035a030                D_8035A030 = 0x8035a030
                0x000000008035b708                D_8035B708 = 0x8035b708
                0x000000008035bb50                D_8035BB50 = 0x8035bb50
                0x000000008035bdf8                D_8035BDF8 = 0x8035bdf8
                0x000000008035c570                D_8035C570 = 0x8035c570
                0x000000008035caf8                D_8035CAF8 = 0x8035caf8
                0x000000008035ce20                D_8035CE20 = 0x8035ce20
                0x000000008035d368                D_8035D368 = 0x8035d368
                0x000000008035dc58                D_8035DC58 = 0x8035dc58
                0x000000008035dc90                D_8035DC90 = 0x8035dc90
                0x000000008035e580                D_8035E580 = 0x8035e580
                0x000000008035e5c8                D_8035E5C8 = 0x8035e5c8
                0x000000008035e6a4                D_8035E6A4 = 0x8035e6a4
                0x000000008035e7f0                D_8035E7F0 = 0x8035e7f0
                0x000000008035e88c                D_8035E88C = 0x8035e88c
                0x000000008035e8cc                D_8035E8CC = 0x8035e8cc
                0x000000008035fb60                D_8035FB60 = 0x8035fb60
                0x000000008035fcb8                D_8035FCB8 = 0x8035fcb8
                0x000000008035ff40                D_8035FF40 = 0x8035ff40
                0x000000008035ff68                D_8035FF68 = 0x8035ff68
                0x0000000080360240                D_80360240 = 0x80360240
                0x0000000080360268                D_80360268 = 0x80360268
                0x0000000080360330                D_80360330 = 0x80360330
                0x0000000080360358                D_80360358 = 0x80360358
                0x00000000803609a0                D_803609A0 = 0x803609a0
                0x00000000803609c8                D_803609C8 = 0x803609c8
                0x0000000080360a90                D_80360A90 = 0x80360a90
                0x0000000080360ab8                D_80360AB8 = 0x80360ab8
                0x0000000080360d28                D_80360D28 = 0x80360d28
                0x0000000080360d50                D_80360D50 = 0x80360d50
                0x0000000080360df8                D_80360DF8 = 0x80360df8
                0x0000000080360e20                D_80360E20 = 0x80360e20
                0x0000000080360f00                D_80360F00 = 0x80360f00
                0x0000000080360f28                D_80360F28 = 0x80360f28
                0x0000000080360fd0                D_80360FD0 = 0x80360fd0
                0x0000000080360ff8                D_80360FF8 = 0x80360ff8
                0x0000000080361230                D_80361230 = 0x80361230
                0x0000000080361258                D_80361258 = 0x80361258
                0x00000000803612f0                D_803612F0 = 0x803612f0
                0x0000000080361858                D_80361858 = 0x80361858
                0x0000000080361900                D_80361900 = 0x80361900
                0x0000000080361928                D_80361928 = 0x80361928
                0x00000000803619d0                D_803619D0 = 0x803619d0
                0x00000000803619f8                D_803619F8 = 0x803619f8
                0x0000000080361aa0                D_80361AA0 = 0x80361aa0
                0x0000000080361ac8                D_80361AC8 = 0x80361ac8
                0x0000000080361d28                D_80361D28 = 0x80361d28
                0x0000000080361d40                D_80361D40 = 0x80361d40
                0x0000000080361de8                D_80361DE8 = 0x80361de8
                0x0000000080361e10                D_80361E10 = 0x80361e10
                0x0000000080362240                D_80362240 = 0x80362240
                0x0000000080362268                D_80362268 = 0x80362268
                0x00000000803624a0                D_803624A0 = 0x803624a0
                0x00000000803624c8                D_803624C8 = 0x803624c8
                0x0000000080362b10                D_80362B10 = 0x80362b10
                0x0000000080362b38                D_80362B38 = 0x80362b38
                0x0000000080363180                D_80363180 = 0x80363180
                0x00000000803631a8                D_803631A8 = 0x803631a8
                0x0000000080363648                D_80363648 = 0x80363648
                0x0000000080363670                D_80363670 = 0x80363670
                0x0000000080363870                D_80363870 = 0x80363870
                0x0000000080363898                D_80363898 = 0x80363898
                0x00000000803639e0                D_803639E0 = 0x803639e0
                0x0000000080363a08                D_80363A08 = 0x80363a08
                0x0000000080363da0                D_80363DA0 = 0x80363da0
                0x0000000080363dc8                D_80363DC8 = 0x80363dc8
                0x0000000080363e50                D_80363E50 = 0x80363e50
                0x0000000080363e68                D_80363E68 = 0x80363e68
                0x0000000080364020                D_80364020 = 0x80364020
                0x0000000080364048                D_80364048 = 0x80364048
                0x0000000080364110                D_80364110 = 0x80364110
                0x0000000080364138                D_80364138 = 0x80364138
                0x0000000080364178                D_80364178 = 0x80364178
                0x0000000080364190                D_80364190 = 0x80364190
                0x0000000080364600                D_80364600 = 0x80364600
                0x0000000080364628                D_80364628 = 0x80364628
                0x00000000803649a0                D_803649A0 = 0x803649a0
                0x00000000803649c8                D_803649C8 = 0x803649c8
                0x0000000080364c00                D_80364C00 = 0x80364c00
                0x0000000080364c28                D_80364C28 = 0x80364c28
                0x0000000080364c80                D_80364C80 = 0x80364c80
                0x0000000080364ca8                D_80364CA8 = 0x80364ca8
                0x0000000080364da0                D_80364DA0 = 0x80364da0
                0x0000000080364dc8                D_80364DC8 = 0x80364dc8
                0x00000000803651f8                D_803651F8 = 0x803651f8
                0x0000000080365220                D_80365220 = 0x80365220
                0x00000000803655e8                D_803655E8 = 0x803655e8
                0x0000000080365610                D_80365610 = 0x80365610
                0x0000000080365bb8                D_80365BB8 = 0x80365bb8
                0x0000000080365be0                D_80365BE0 = 0x80365be0
                0x0000000080365ea8                D_80365EA8 = 0x80365ea8
                0x0000000080365ed0                D_80365ED0 = 0x80365ed0
                0x0000000080366688                D_80366688 = 0x80366688
                0x00000000803666b0                D_803666B0 = 0x803666b0
                0x0000000080366728                D_80366728 = 0x80366728
                0x0000000080366750                D_80366750 = 0x80366750
                0x0000000080367018                D_80367018 = 0x80367018
                0x0000000080367040                D_80367040 = 0x80367040
                0x0000000080367138                D_80367138 = 0x80367138
                0x0000000080367160                D_80367160 = 0x80367160
                0x0000000080367258                D_80367258 = 0x80367258
                0x0000000080367288                D_80367288 = 0x80367288
                0x0000000080367368                D_80367368 = 0x80367368
                0x0000000080367390                D_80367390 = 0x80367390
                0x0000000080367518                D_80367518 = 0x80367518
                0x0000000080367530                D_80367530 = 0x80367530
                0x00000000803675f8                D_803675F8 = 0x803675f8
                0x0000000080367610                D_80367610 = 0x80367610
                0x0000000080367750                D_80367750 = 0x80367750
                0x0000000080367778                D_80367778 = 0x80367778
                0x0000000080367b00                D_80367B00 = 0x80367b00
                0x0000000080367b28                D_80367B28 = 0x80367b28
                0x00000000803680d0                D_803680D0 = 0x803680d0
                0x00000000803680e8                D_803680E8 = 0x803680e8
                0x0000000080368128                D_80368128 = 0x80368128
                0x0000000080368140                D_80368140 = 0x80368140
                0x0000000080368198                D_80368198 = 0x80368198
                0x00000000803681c0                D_803681C0 = 0x803681c0
                0x0000000080368548                D_80368548 = 0x80368548
                0x0000000080368570                D_80368570 = 0x80368570
                0x00000000803685d8                D_803685D8 = 0x803685d8
                0x00000000803685f0                D_803685F0 = 0x803685f0
                0x0000000080368658                D_80368658 = 0x80368658
                0x0000000080368670                D_80368670 = 0x80368670
                0x0000000080368ac8                D_80368AC8 = 0x80368ac8
                0x0000000080368af0                D_80368AF0 = 0x80368af0
                0x0000000080368e78                D_80368E78 = 0x80368e78
                0x0000000080368ea0                D_80368EA0 = 0x80368ea0
                0x0000000080368ee8                D_80368EE8 = 0x80368ee8
                0x0000000080368f00                D_80368F00 = 0x80368f00
                0x0000000080369070                D_80369070 = 0x80369070
                0x0000000080369098                D_80369098 = 0x80369098
                0x0000000080369300                D_80369300 = 0x80369300
                0x0000000080369348                D_80369348 = 0x80369348
                0x00000000803695b0                D_803695B0 = 0x803695b0
                0x00000000803695f8                D_803695F8 = 0x803695f8
                0x0000000080369860                D_80369860 = 0x80369860
                0x00000000803698a8                D_803698A8 = 0x803698a8
                0x00000000803699b8                D_803699B8 = 0x803699b8
                0x00000000803699e0                D_803699E0 = 0x803699e0
                0x0000000080369aa8                D_80369AA8 = 0x80369aa8
                0x0000000080369ac0                D_80369AC0 = 0x80369ac0
                0x0000000080369b18                D_80369B18 = 0x80369b18
                0x0000000080370e10                D_80370E10 = 0x80370e10
                0x0000000080373408                D_80373408 = 0x80373408
                0x0000000080377d18                D_80377D18 = 0x80377d18
                0x0000000080384c10                D_80384C10 = 0x80384c10
                0x0000000080384e18                D_80384E18 = 0x80384e18
                0x0000000080385648                D_80385648 = 0x80385648
                0x0000000080385670                D_80385670 = 0x80385670
                0x00000000803856b8                D_803856B8 = 0x803856b8
                0x00000000803856d0                D_803856D0 = 0x803856d0
                0x0000000080385718                D_80385718 = 0x80385718
                0x0000000080385730                D_80385730 = 0x80385730
                0x0000000080385778                D_80385778 = 0x80385778
                0x0000000080385790                D_80385790 = 0x80385790
                0x0000000080385ae0                D_80385AE0 = 0x80385ae0
                0x0000000080385b08                D_80385B08 = 0x80385b08
                0x0000000080385e58                D_80385E58 = 0x80385e58
                0x0000000080385e80                D_80385E80 = 0x80385e80
                0x00000000803861d0                D_803861D0 = 0x803861d0
                0x00000000803861f8                D_803861F8 = 0x803861f8
                0x0000000080386548                D_80386548 = 0x80386548
                0x0000000080386570                D_80386570 = 0x80386570
                0x00000000803868c0                D_803868C0 = 0x803868c0
                0x00000000803868e8                D_803868E8 = 0x803868e8
                0x0000000080386c38                D_80386C38 = 0x80386c38
                0x0000000080386c60                D_80386C60 = 0x80386c60
                0x00000000803872e8                D_803872E8 = 0x803872e8
                0x0000000080387318                D_80387318 = 0x80387318
                0x0000000080389160                D_80389160 = 0x80389160
                0x0000000080389178                D_80389178 = 0x80389178
                0x00000000803891c0                D_803891C0 = 0x803891c0
                0x00000000803891d8                D_803891D8 = 0x803891d8
                0x000000008038aea0                D_8038AEA0 = 0x8038aea0
                0x000000008038b108                D_8038B108 = 0x8038b108
                0x000000008038b130                D_8038B130 = 0x8038b130
                0x000000008038b1f8                D_8038B1F8 = 0x8038b1f8
                0x000000008038b210                D_8038B210 = 0x8038b210
                0x000000008038be18                D_8038BE18 = 0x8038be18
                0x000000008038bed0                D_8038BED0 = 0x8038bed0
                0x000000008038c0f8                D_8038C0F8 = 0x8038c0f8
                0x000000008038c120                D_8038C120 = 0x8038c120
                0x000000008038d2e0                D_8038D2E0 = 0x8038d2e0
                0x000000008038d8a0                D_8038D8A0 = 0x8038d8a0
                0x000000008038dac8                D_8038DAC8 = 0x8038dac8
                0x000000008038daf0                D_8038DAF0 = 0x8038daf0
                0x000000008038ecb0                D_8038ECB0 = 0x8038ecb0
                0x000000008038f2a0                D_8038F2A0 = 0x8038f2a0
                0x000000008038f4c8                D_8038F4C8 = 0x8038f4c8
                0x000000008038f4f0                D_8038F4F0 = 0x8038f4f0
                0x00000000803906b0                D_803906B0 = 0x803906b0
                0x0000000080390ca0                D_80390CA0 = 0x80390ca0
                0x0000000080390ec8                D_80390EC8 = 0x80390ec8
                0x0000000080390ef0                D_80390EF0 = 0x80390ef0
                0x00000000803918f8                D_803918F8 = 0x803918f8
                0x0000000080391eb8                D_80391EB8 = 0x80391eb8
                0x00000000803920e0                D_803920E0 = 0x803920e0
                0x0000000080392108                D_80392108 = 0x80392108
                0x0000000080392b10                D_80392B10 = 0x80392b10
                0x00000000803930e0                D_803930E0 = 0x803930e0
                0x0000000080393308                D_80393308 = 0x80393308
                0x0000000080393330                D_80393330 = 0x80393330
                0x0000000080393b38                D_80393B38 = 0x80393b38
                0x0000000080394128                D_80394128 = 0x80394128
                0x00000000803944f0                D_803944F0 = 0x803944f0
                0x0000000080394518                D_80394518 = 0x80394518
                0x0000000080394a70                D_80394A70 = 0x80394a70
                0x0000000080394a98                D_80394A98 = 0x80394a98
                0x0000000080394de8                D_80394DE8 = 0x80394de8
                0x0000000080394e10                D_80394E10 = 0x80394e10
                0x0000000080395070                D_80395070 = 0x80395070
                0x0000000080395098                D_80395098 = 0x80395098
                0x00000000803952f8                D_803952F8 = 0x803952f8
                0x0000000080395320                D_80395320 = 0x80395320
                0x0000000080395580                D_80395580 = 0x80395580
                0x00000000803955a8                D_803955A8 = 0x803955a8
                0x0000000080395808                D_80395808 = 0x80395808
                0x0000000080395830                D_80395830 = 0x80395830
                0x0000000080395c88                D_80395C88 = 0x80395c88
                0x0000000080395ca0                D_80395CA0 = 0x80395ca0
                0x0000000080395ee8                D_80395EE8 = 0x80395ee8
                0x0000000080395f10                D_80395F10 = 0x80395f10
                0x00000000803960a8                D_803960A8 = 0x803960a8
                0x00000000803960d0                D_803960D0 = 0x803960d0
                0x0000000080396228                D_80396228 = 0x80396228
                0x0000000080396240                D_80396240 = 0x80396240
                0x0000000080396bb0                D_80396BB0 = 0x80396bb0
                0x0000000080396c18                D_80396C18 = 0x80396c18
                0x0000000080396fe0                D_80396FE0 = 0x80396fe0
                0x0000000080397018                D_80397018 = 0x80397018
                0x0000000080397988                D_80397988 = 0x80397988
                0x0000000080397ad0                D_80397AD0 = 0x80397ad0
                0x0000000080397e98                D_80397E98 = 0x80397e98
                0x0000000080397ec0                D_80397EC0 = 0x80397ec0
                0x0000000080397f50                D_80397F50 = 0x80397f50
                0x0000000080397f78                D_80397F78 = 0x80397f78
                0x0000000080398008                D_80398008 = 0x80398008
                0x0000000080398030                D_80398030 = 0x80398030
                0x00000000803980c0                D_803980C0 = 0x803980c0
                0x00000000803980e8                D_803980E8 = 0x803980e8
                0x00000000803985f0                D_803985F0 = 0x803985f0
                0x0000000080398618                D_80398618 = 0x80398618
                0x0000000080398a70                D_80398A70 = 0x80398a70
                0x0000000080398a88                D_80398A88 = 0x80398a88
                0x0000000080398be0                D_80398BE0 = 0x80398be0
                0x0000000080398c08                D_80398C08 = 0x80398c08
                0x0000000080398d60                D_80398D60 = 0x80398d60
                0x0000000080398d88                D_80398D88 = 0x80398d88
                0x00000000803990d8                D_803990D8 = 0x803990d8
                0x0000000080399100                D_80399100 = 0x80399100
                0x00000000803992f8                D_803992F8 = 0x803992f8
                0x0000000080399310                D_80399310 = 0x80399310
                0x00000000803993d8                D_803993D8 = 0x803993d8
                0x00000000803993f0                D_803993F0 = 0x803993f0
                0x0000000080399f98                D_80399F98 = 0x80399f98
                0x000000008039a010                D_8039A010 = 0x8039a010
                0x000000008039a7f8                D_8039A7F8 = 0x8039a7f8
                0x000000008039a860                D_8039A860 = 0x8039a860
                0x000000008039ada8                D_8039ADA8 = 0x8039ada8
                0x000000008039ae10                D_8039AE10 = 0x8039ae10
                0x000000008039bc18                D_8039BC18 = 0x8039bc18
                0x000000008039d8c0                D_8039D8C0 = 0x8039d8c0
                0x000000008039e230                D_8039E230 = 0x8039e230
                0x000000008039e298                D_8039E298 = 0x8039e298
                0x000000008039e660                D_8039E660 = 0x8039e660
                0x000000008039e688                D_8039E688 = 0x8039e688
                0x000000008039e7a8                D_8039E7A8 = 0x8039e7a8
                0x000000008039e7d0                D_8039E7D0 = 0x8039e7d0
                0x000000008039e810                D_8039E810 = 0x8039e810
                0x000000008039e838                D_8039E838 = 0x8039e838
                0x000000008039e8d0                D_8039E8D0 = 0x8039e8d0
                0x000000008039e8e8                D_8039E8E8 = 0x8039e8e8
                0x000000008039f258                D_8039F258 = 0x8039f258
                0x000000008039f390                D_8039F390 = 0x8039f390
                0x000000008039f758                D_8039F758 = 0x8039f758
                0x000000008039f790                D_8039F790 = 0x8039f790
                0x000000008039f908                D_8039F908 = 0x8039f908
                0x000000008039f930                D_8039F930 = 0x8039f930
                0x000000008039fc38                D_8039FC38 = 0x8039fc38
                0x000000008039fc60                D_8039FC60 = 0x8039fc60
                0x00000000803a08e8                D_803A08E8 = 0x803a08e8
                0x00000000803a0900                D_803A0900 = 0x803a0900
                0x00000000803a0aa8                D_803A0AA8 = 0x803a0aa8
                0x00000000803a0ad0                D_803A0AD0 = 0x803a0ad0
                0x00000000803a0c88                D_803A0C88 = 0x803a0c88
                0x00000000803a0cb0                D_803A0CB0 = 0x803a0cb0
                0x00000000803a0e68                D_803A0E68 = 0x803a0e68
                0x00000000803a0e90                D_803A0E90 = 0x803a0e90
                0x00000000803a1800                D_803A1800 = 0x803a1800
                0x00000000803a1938                D_803A1938 = 0x803a1938
                0x00000000803a1d00                D_803A1D00 = 0x803a1d00
                0x00000000803a1d38                D_803A1D38 = 0x803a1d38
                0x00000000803a1f80                D_803A1F80 = 0x803a1f80
                0x00000000803a1fa8                D_803A1FA8 = 0x803a1fa8
                0x00000000803a21f0                D_803A21F0 = 0x803a21f0
                0x00000000803a2218                D_803A2218 = 0x803a2218
                0x00000000803a2460                D_803A2460 = 0x803a2460
                0x00000000803a2488                D_803A2488 = 0x803a2488
                0x00000000803a26d0                D_803A26D0 = 0x803a26d0
                0x00000000803a26f8                D_803A26F8 = 0x803a26f8
                0x00000000803a2940                D_803A2940 = 0x803a2940
                0x00000000803a2968                D_803A2968 = 0x803a2968
                0x00000000803a3810                D_803A3810 = 0x803a3810
                0x00000000803a3838                D_803A3838 = 0x803a3838
                0x00000000803a3918                D_803A3918 = 0x803a3918
                0x00000000803a3930                D_803A3930 = 0x803a3930
                0x00000000803a3a10                D_803A3A10 = 0x803a3a10
                0x00000000803a3a28                D_803A3A28 = 0x803a3a28
                0x00000000803a3f28                D_803A3F28 = 0x803a3f28
                0x00000000803a3f50                D_803A3F50 = 0x803a3f50
                0x00000000803a4450                D_803A4450 = 0x803a4450
                0x00000000803a4478                D_803A4478 = 0x803a4478
                0x00000000803a4978                D_803A4978 = 0x803a4978
                0x00000000803a49a0                D_803A49A0 = 0x803a49a0
                0x00000000803a4ea0                D_803A4EA0 = 0x803a4ea0
                0x00000000803a4ec8                D_803A4EC8 = 0x803a4ec8
                0x00000000803a53c8                D_803A53C8 = 0x803a53c8
                0x00000000803a53f0                D_803A53F0 = 0x803a53f0
                0x00000000803a5d60                D_803A5D60 = 0x803a5d60
                0x00000000803a5e28                D_803A5E28 = 0x803a5e28
                0x00000000803a61f0                D_803A61F0 = 0x803a61f0
                0x00000000803a6228                D_803A6228 = 0x803a6228
                0x00000000803a6b98                D_803A6B98 = 0x803a6b98
                0x00000000803a6c30                D_803A6C30 = 0x803a6c30
                0x00000000803a6ff8                D_803A6FF8 = 0x803a6ff8
                0x00000000803a7030                D_803A7030 = 0x803a7030
                0x00000000803a7650                D_803A7650 = 0x803a7650
                0x00000000803a7678                D_803A7678 = 0x803a7678
                0x00000000803a9980                D_803A9980 = 0x803a9980
                0x00000000803a9b88                D_803A9B88 = 0x803a9b88
                0x00000000803abe90                D_803ABE90 = 0x803abe90
                0x00000000803ac098                D_803AC098 = 0x803ac098
                0x00000000803ae3a0                D_803AE3A0 = 0x803ae3a0
                0x00000000803ae5a8                D_803AE5A8 = 0x803ae5a8
                0x00000000803b08b0                D_803B08B0 = 0x803b08b0
                0x00000000803b0ab8                D_803B0AB8 = 0x803b0ab8
                0x00000000803b2dc0                D_803B2DC0 = 0x803b2dc0
                0x00000000803b2fc8                D_803B2FC8 = 0x803b2fc8
                0x00000000803b52d0                D_803B52D0 = 0x803b52d0
                0x00000000803b54d8                D_803B54D8 = 0x803b54d8
                0x00000000803b58e0                D_803B58E0 = 0x803b58e0
                0x00000000803b5ce8                D_803B5CE8 = 0x803b5ce8
                0x00000000803b60f0                D_803B60F0 = 0x803b60f0
                0x00000000803b64f8                D_803B64F8 = 0x803b64f8
                0x00000000803b6e68                D_803B6E68 = 0x803b6e68
                0x00000000803b6fc0                D_803B6FC0 = 0x803b6fc0
                0x00000000803b7388                D_803B7388 = 0x803b7388
                0x00000000803b73c8                D_803B73C8 = 0x803b73c8
                0x00000000803b8920                D_803B8920 = 0x803b8920
                0x00000000803b98e8                D_803B98E8 = 0x803b98e8
                0x00000000803bb5f0                D_803BB5F0 = 0x803bb5f0
                0x00000000803bbdf8                D_803BBDF8 = 0x803bbdf8
                0x00000000803bf588                D_803BF588 = 0x803bf588
                0x00000000803bf958                D_803BF958 = 0x803bf958
                0x00000000803bf980                D_803BF980 = 0x803bf980
                0x00000000803bfbf8                D_803BFBF8 = 0x803bfbf8
                0x00000000803bfc50                D_803BFC50 = 0x803bfc50
                0x00000000803bfd90                D_803BFD90 = 0x803bfd90
                0x00000000803bfdb8                D_803BFDB8 = 0x803bfdb8
                0x00000000803c0030                D_803C0030 = 0x803c0030
                0x00000000803c0078                D_803C0078 = 0x803c0078
                0x00000000803c01b8                D_803C01B8 = 0x803c01b8
                0x00000000803c01e0                D_803C01E0 = 0x803c01e0
                0x00000000803c05b0                D_803C05B0 = 0x803c05b0
                0x00000000803c05d8                D_803C05D8 = 0x803c05d8
                0x00000000803c09a8                D_803C09A8 = 0x803c09a8
                0x00000000803c09d0                D_803C09D0 = 0x803c09d0
                0x00000000803c11c0                D_803C11C0 = 0x803c11c0
                0x00000000803c11e8                D_803C11E8 = 0x803c11e8
                0x00000000803c17b0                D_803C17B0 = 0x803c17b0
                0x00000000803c1838                D_803C1838 = 0x803c1838
                0x00000000803c1fd0                D_803C1FD0 = 0x803c1fd0
                0x00000000803c2128                D_803C2128 = 0x803c2128
                0x00000000803c28c0                D_803C28C0 = 0x803c28c0
                0x00000000803c2a28                D_803C2A28 = 0x803c2a28
                0x00000000803c2ff0                D_803C2FF0 = 0x803c2ff0
                0x00000000803c3058                D_803C3058 = 0x803c3058
                0x00000000803c37f0                D_803C37F0 = 0x803c37f0
                0x00000000803c39a8                D_803C39A8 = 0x803c39a8
                0x00000000803c3f70                D_803C3F70 = 0x803c3f70
                0x00000000803c3fd8                D_803C3FD8 = 0x803c3fd8
                0x00000000803c46e0                D_803C46E0 = 0x803c46e0
                0x00000000803c47a8                D_803C47A8 = 0x803c47a8
                0x00000000803c4f40                D_803C4F40 = 0x803c4f40
                0x00000000803c50d8                D_803C50D8 = 0x803c50d8
                0x00000000803c5870                D_803C5870 = 0x803c5870
                0x00000000803c59d8                D_803C59D8 = 0x803c59d8
                0x00000000803c6170                D_803C6170 = 0x803c6170
                0x00000000803c62c8                D_803C62C8 = 0x803c62c8
                0x00000000803c69d0                D_803C69D0 = 0x803c69d0
                0x00000000803c6ac8                D_803C6AC8 = 0x803c6ac8
                0x00000000803c6fb0                D_803C6FB0 = 0x803c6fb0
                0x00000000803c6fd8                D_803C6FD8 = 0x803c6fd8
                0x00000000803c76e0                D_803C76E0 = 0x803c76e0
                0x00000000803c7708                D_803C7708 = 0x803c7708
                0x00000000803c7b10                D_803C7B10 = 0x803c7b10
                0x00000000803c7b38                D_803C7B38 = 0x803c7b38
                0x00000000803c7f08                D_803C7F08 = 0x803c7f08
                0x00000000803c7f30                D_803C7F30 = 0x803c7f30
                0x00000000803c8300                D_803C8300 = 0x803c8300
                0x00000000803c8328                D_803C8328 = 0x803c8328
                0x00000000803c86f8                D_803C86F8 = 0x803c86f8
                0x00000000a0000000                D_A0000000 = 0xa0000000
                0x00000000a4040000                D_A4040000 = 0xa4040000
                0x00000000a4040004                D_A4040004 = 0xa4040004
                0x00000000a4040008                D_A4040008 = 0xa4040008
                0x00000000a404000c                D_A404000C = 0xa404000c
                0x00000000a4040010                D_A4040010 = 0xa4040010
                0x00000000a4080000                D_A4080000 = 0xa4080000
                0x00000000a4100000                D_A4100000 = 0xa4100000
                0x00000000a4100004                D_A4100004 = 0xa4100004
                0x00000000a410000c                D_A410000C = 0xa410000c
                0x00000000a4300000                D_A4300000 = 0xa4300000
                0x00000000a4300008                D_A4300008 = 0xa4300008
                0x00000000a430000c                D_A430000C = 0xa430000c
                0x00000000a4400000                D_A4400000 = 0xa4400000
                0x00000000a4400004                D_A4400004 = 0xa4400004
                0x00000000a4400008                D_A4400008 = 0xa4400008
                0x00000000a440000c                D_A440000C = 0xa440000c
                0x00000000a4400010                D_A4400010 = 0xa4400010
                0x00000000a4400014                D_A4400014 = 0xa4400014
                0x00000000a4400018                D_A4400018 = 0xa4400018
                0x00000000a440001c                D_A440001C = 0xa440001c
                0x00000000a4400020                D_A4400020 = 0xa4400020
                0x00000000a4400024                D_A4400024 = 0xa4400024
                0x00000000a4400028                D_A4400028 = 0xa4400028
                0x00000000a440002c                D_A440002C = 0xa440002c
                0x00000000a4400030                D_A4400030 = 0xa4400030
                0x00000000a4400034                D_A4400034 = 0xa4400034
                0x00000000a4500000                D_A4500000 = 0xa4500000
                0x00000000a4500004                D_A4500004 = 0xa4500004
                0x00000000a4500008                D_A4500008 = 0xa4500008
                0x00000000a450000c                D_A450000C = 0xa450000c
                0x00000000a4500010                D_A4500010 = 0xa4500010
                0x00000000a4500014                D_A4500014 = 0xa4500014
                0x00000000a4600000                D_A4600000 = 0xa4600000
                0x00000000a4600004                D_A4600004 = 0xa4600004
                0x00000000a4600008                D_A4600008 = 0xa4600008
                0x00000000a460000c                D_A460000C = 0xa460000c
                0x00000000a4600010                D_A4600010 = 0xa4600010
                0x00000000a4600014                D_A4600014 = 0xa4600014
                0x00000000a4600018                D_A4600018 = 0xa4600018
                0x00000000a460001c                D_A460001C = 0xa460001c
                0x00000000a4600020                D_A4600020 = 0xa4600020
                0x00000000a4600024                D_A4600024 = 0xa4600024
                0x00000000a4600028                D_A4600028 = 0xa4600028
                0x00000000a460002c                D_A460002C = 0xa460002c
                0x00000000a4600030                D_A4600030 = 0xa4600030
                0x00000000a4800000                D_A4800000 = 0xa4800000
                0x00000000a4800004                D_A4800004 = 0xa4800004
                0x00000000a4800010                D_A4800010 = 0xa4800010
                0x00000000a4800018                D_A4800018 = 0xa4800018
                0x00000000a5000508                D_A5000508 = 0xa5000508
                0x00000000a5000510                D_A5000510 = 0xa5000510
                0x0000000080000450                func_80000450 = 0x80000450
                0x0000000084001008                func_84001008 = 0x84001008
                0x000000008400103c                func_8400103C = 0x8400103c
                0x0000000084001064                func_84001064 = 0x84001064
                0x00000000840010c8                func_840010C8 = 0x840010c8
                0x00000000840010e8                func_840010E8 = 0x840010e8
                0x00000000840011b8                func_840011B8 = 0x840011b8
                0x0000000084001730                func_84001730 = 0x84001730
                0x0000000084001fc4                func_84001FC4 = 0x84001fc4
                0x0000000084001fd4                func_84001FD4 = 0x84001fd4
                0x0000000084001fd8                func_84001FD8 = 0x84001fd8
OUTPUT(build/AeroGauge.us.elf elf32-bigmips)
